(dp1
S'10022834'
p2
(lp3
I3
aS'The transcription factor E4BP4 regulates the production of IL-10 and IL-13 in CD4+ T cells.'
p4
aS'2011'
p5
aS'Nature immunology'
p6
asS'10216107'
p7
(lp8
I1
aS'PINCH2 is a new five LIM domain protein, homologous to PINCHand localized to focal adhesions.'
p9
aS'2003'
p10
aS'Experimental cell research'
p11
asS'10187864'
p12
(lp13
I2
aS'Experimental analysis of the Arabidopsis mitochondrial proteome highlights signaling and regulatory components, provides assessment of targeting prediction programs, and indicates plant-specific mitochondrial proteins.'
p14
aS'2004'
p15
aS'The Plant cell'
p16
asS'10079200'
p17
(lp18
I1
aS'The MYB transcription factor superfamily of Arabidopsis: expression analysis and phylogenetic comparison with the rice MYB family.'
p19
aS'2006'
p20
aS'Plant molecular biology'
p21
asS'10097074'
p22
(lp23
I1
aS'Empirically controlled mapping of the Caenorhabditis elegans protein-protein interactome network.'
p24
aS'2009'
p25
aS'Nature methods'
p26
asS'10050766'
p27
(lp28
I1
aS'Proteomics of Synechocystis sp. strain PCC 6803. Identification of periplasmic proteins in cells grown at low and high salt concentrations.'
p29
aS'2000'
p30
aS'European journal of biochemistry / FEBS'
p31
asS'10233998'
p32
(lp33
I3
aS'Genetic analysis of fin formation in the zebrafish, Danio rerio.'
p34
aS'1996'
p35
aS'Development (Cambridge, England)'
p36
asS'10026245'
p37
(lp38
I5
aS'Digenic inheritance of deafness caused by mutations in genes encoding cadherin 23 and protocadherin 15 in mice and humans.'
p39
aS'2005'
p40
aS'Human molecular genetics'
p41
asS'10037757'
p42
(lp43
I1
aS'The small GTPase Rac1 regulates auditory hair cell morphogenesis.'
p44
aS'2009'
p45
aS'The Journal of neuroscience : the official journal of the Society for Neuroscience'
p46
asS'10082519'
p47
(lp48
I2
aS'Targeted interactomics reveals a complex core cell cycle machinery in Arabidopsis thaliana.'
p49
aS'2010'
p50
aS'Molecular systems biology'
p51
asS'10082517'
p52
(lp53
I2
aS'Identification of Mycobacterium tuberculosis H37Rv integral membrane proteins by one-dimensional gel electrophoresis and liquid chromatography electrospray ionization tandem mass spectrometry.'
p54
aS'2005'
p55
aS'Journal of proteome research'
p56
asS'10208559'
p57
(lp58
I2
aS'Distinct regulatory cascades govern extraocular and pharyngeal arch muscle progenitor cell fates.'
p59
aS'2009'
p60
aS'Developmental cell'
p61
asS'10080188'
p62
(lp63
I4
aS'High light response of the thylakoid proteome in arabidopsis wild type and the ascorbate-deficient mutant vtc2-2. A comparative proteomics study.'
p64
aS'2006'
p65
aS'Plant physiology'
p66
asS'10206703'
p67
(lp68
I1
aS'Tead proteins activate the Foxa2 enhancer in the node in cooperation with a second factor.'
p69
aS'2005'
p70
aS'Development (Cambridge, England)'
p71
asS'10206705'
p72
(lp73
I4
aS'A function for interleukin 2 in Foxp3-expressing regulatory T cells.'
p74
aS'2005'
p75
aS'Nature immunology'
p76
asS'10318970'
p77
(lp78
I2
aS'The hairless gene mutated in congenital hair loss disorders encodes a novel nuclear receptor corepressor.'
p79
aS'2001'
p80
aS'Genes & development'
p81
asS'10052932'
p82
(lp83
I2
aS'Terminal cytokinesis events uncovered after an RNAi screen.'
p84
aS'2004'
p85
aS'Current biology : CB'
p86
asS'10022901'
p87
(lp88
I1
aS'RNA interference screen to identify genes required for Drosophila embryonic nervous system development.'
p89
aS'2007'
p90
aS'Proceedings of the National Academy of Sciences of the United States of America'
p91
asS'10318872'
p92
(lp93
I7
aS'Dynamic expression of Cx47 in mouse brain development and in the cuprizone model of myelin plasticity.'
p94
aS'2010'
p95
aS'Glia'
p96
asS'10080184'
p97
(lp98
I4
aS'Functional organization of the yeast proteome by systematic analysis of protein complexes.'
p99
aS'2002'
p100
aS'Nature'
p101
asS'10048142'
p102
(lp103
I1
aS'Analysis of the soluble ATP-binding proteome of plant mitochondria identifies new proteins and nucleotide triphosphate interactions within the matrix.'
p104
aS'2006'
p105
aS'Journal of proteome research'
p106
asS'10068646'
p107
(lp108
I2
aS'A vast repertoire of Dscam binding specificities arises from modular interactions of variable Ig domains.'
p109
aS'2007'
p110
aS'Cell'
p111
asS'10212149'
p112
(lp113
I4
aS'Role of fibroblast growth factor receptors 1 and 2 in the metanephric mesenchyme.'
p114
aS'2006'
p115
aS'Developmental biology'
p116
asS'10068640'
p117
(lp118
I2
aS'Dscam diversity is essential for neuronal wiring and self-recognition.'
p119
aS'2007'
p120
aS'Nature'
p121
asS'10098838'
p122
(lp123
I6
aS'Site-specific phosphorylation profiling of Arabidopsis proteins by mass spectrometry and peptide chip analysis.'
p124
aS'2008'
p125
aS'Journal of proteome research'
p126
asS'10218152'
p127
(lp128
I1
aS'Frag1, a homolog of alternative replication factor C subunits, links replication stress surveillance with apoptosis.'
p129
aS'2005'
p130
aS'Proceedings of the National Academy of Sciences of the United States of America'
p131
asS'10206977'
p132
(lp133
I1
aS'Mouse MAELSTROM: the link between meiotic silencing of unsynapsed chromatin and microRNA pathway?'
p134
aS'2006'
p135
aS'Human molecular genetics'
p136
asS'10092851'
p137
(lp138
I2
aS'Analysis of the Arabidopsis nuclear proteome and its response to cold stress.'
p139
aS'2003'
p140
aS'The Plant journal : for cell and molecular biology'
p141
asS'10026181'
p142
(lp143
I1
aS'Male germ cells require polyenoic sphingolipids with complex glycosylation for completion of meiosis: a link to ceramide synthase-3.'
p144
aS'2008'
p145
aS'The Journal of biological chemistry'
p146
asS'10073953'
p147
(lp148
I1
aS'Drosophila Dscam is an axon guidance receptor exhibiting extraordinary molecular diversity.'
p149
aS'2000'
p150
aS'Cell'
p151
asS'10073593'
p152
(lp153
I4
aS'Structural and functional organization of TRAP220, the TRAP/mediator subunit that is targeted by nuclear receptors.'
p154
aS'2004'
p155
aS'Molecular and cellular biology'
p156
asS'10231382'
p157
(lp158
I1
aS'FGF9 and SHH signaling coordinate lung growth and development through regulation of distinct mesenchymal domains.'
p159
aS'2006'
p160
aS'Development (Cambridge, England)'
p161
asS'10075730'
p162
(lp163
I1
aS'Large-scale screening for novel low-affinity extracellular protein interactions.'
p164
aS'2008'
p165
aS'Genome research'
p166
asS'10209257'
p167
(lp168
I2
aS'Mice deficient for delta- and mu-opioid receptors exhibit opposing alterations of emotional responses.'
p169
aS'2000'
p170
aS'Nature genetics'
p171
asS'10102365'
p172
(lp173
I1
aS'Subcellular localization of the yeast proteome.'
p174
aS'2002'
p175
aS'Genes & development'
p176
asS'10196219'
p177
(lp178
I2
aS'Genome-wide RNAi of C. elegans using the hypersensitive rrf-3 strain reveals novel gene functions.'
p179
aS'2003'
p180
aS'PLoS biology'
p181
asS'10206952'
p182
(lp183
I4
aS'The DnaJ-related factor Mrj interacts with nuclear factor of activated T cells c3 and mediates transcriptional repression through class II histone deacetylase recruitment.'
p184
aS'2005'
p185
aS'Molecular and cellular biology'
p186
asS'10086355'
p187
(lp188
I1
aS'Genetic and molecular identification of genes required for female gametophyte development and function in Arabidopsis.'
p189
aS'2005'
p190
aS'Development (Cambridge, England)'
p191
asS'10233680'
p192
(lp193
I1
aS'Internal architecture of mitochondrial complex I from Arabidopsis thaliana.'
p194
aS'2010'
p195
aS'The Plant cell'
p196
asS'10330187'
p197
(lp198
I3
aS'The subunit composition of the human NADH dehydrogenase obtained by rapid one-step immunopurification.'
p199
aS'2003'
p200
aS'The Journal of biological chemistry'
p201
asS'10216241'
p202
(lp203
I2
aS'Missing self-recognition of Ocil/Clr-b by inhibitory NKR-P1 natural killer cell receptors.'
p204
aS'2004'
p205
aS'Proceedings of the National Academy of Sciences of the United States of America'
p206
asS'10212249'
p207
(lp208
I3
aS'Intracellular substrates of brain-enriched receptor protein tyrosine phosphatase rho (RPTPrho/PTPRT).'
p209
aS'2006'
p210
aS'Brain research'
p211
asS'10205059'
p212
(lp213
I2
aS'Molecular evidence for the functional role of dopamine D3 receptor in the morphine-induced rewarding effect and hyperlocomotion.'
p214
aS'2003'
p215
aS'The Journal of neuroscience : the official journal of the Society for Neuroscience'
p216
asS'10231559'
p217
(lp218
I1
aS'Molecular composition of IMP1 ribonucleoprotein granules.'
p219
aS'2007'
p220
aS'Molecular & cellular proteomics : MCP'
p221
asS'10069808'
p222
(lp223
I1
aS'The tripartite motif family identifies cell compartments.'
p224
aS'2001'
p225
aS'The EMBO journal'
p226
asS'10077700'
p227
(lp228
I1
aS'High-resolution DNA-binding specificity analysis of yeast transcription factors.'
p229
aS'2009'
p230
aS'Genome research'
p231
asS'10215899'
p232
(lp233
I3
aS'The TRAP100 component of the TRAP/Mediator complex is essential in broad transcriptional events and development.'
p234
aS'2002'
p235
aS'The EMBO journal'
p236
asS'10069805'
p237
(lp238
I3
aS'Proteomic analysis of rat liver peroxisome: presence of peroxisome-specific isozyme of Lon protease.'
p239
aS'2004'
p240
aS'The Journal of biological chemistry'
p241
asS'101549'
p242
(lp243
I2
aS'Gene clustering based on RNAi phenotypes of ovary-enriched genes in C. elegans.'
p244
aS'2002'
p245
aS'Current biology : CB'
p246
asS'10189365'
p247
(lp248
I4
aS'Mapping the Arabidopsis organelle proteome.'
p249
aS'2006'
p250
aS'Proceedings of the National Academy of Sciences of the United States of America'
p251
asS'10205903'
p252
(lp253
I1
aS'Augmented IL-10 production and redox-dependent signaling pathways in glucose-6-phosphate dehydrogenase-deficient mouse peritoneal macrophages.'
p254
aS'2005'
p255
aS'Journal of leukocyte biology'
p256
asS'10103044'
p257
(lp258
I2
aS'Towards a proteome-scale map of the human protein-protein interaction network.'
p259
aS'2005'
p260
aS'Nature'
p261
asS'10189369'
p262
(lp263
I1
aS'A high content in lipid-modified peripheral proteins and integral receptor kinases features in the arabidopsis plasma membrane proteome.'
p264
aS'2007'
p265
aS'Molecular & cellular proteomics : MCP'
p266
asS'10198637'
p267
(lp268
I1
aS'Drug-sensitized zebrafish screen identifies multiple genes, including GINS3, as regulators of myocardial repolarization.'
p269
aS'2009'
p270
aS'Circulation'
p271
asS'10072401'
p272
(lp273
I2
aS'Characterization of the Drosophila lipid droplet subproteome.'
p274
aS'2006'
p275
aS'Molecular & cellular proteomics : MCP'
p276
asS'10330464'
p277
(lp278
I1
aS'Wdnm1-like, a new adipokine with a role in MMP-2 activation.'
p279
aS'2008'
p280
aS'American journal of physiology. Endocrinology and metabolism'
p281
asS'10217147'
p282
(lp283
I1
aS'Phosphorylation of mouse LASP-1 on threonine 156 by cAMP- and cGMP-dependent protein kinase.'
p284
aS'2004'
p285
aS'Biochemical and biophysical research communications'
p286
asS'10213508'
p287
(lp288
I1
aS'Molecular specification and patterning of progenitor cells in the lateral and medial ganglionic eminences.'
p289
aS'2008'
p290
aS'The Journal of neuroscience : the official journal of the Society for Neuroscience'
p291
asS'10330468'
p292
(lp293
I1
aS'Neuropeptides in Heteroptera: identification of allatotropin-related peptide and tachykinin-related peptides using MALDI-TOF mass spectrometry.'
p294
aS'2009'
p295
aS'Peptides'
p296
asS'10220586'
p297
(lp298
I2
aS'IQGAP3 regulates cell proliferation through the Ras/ERK signalling cascade.'
p299
aS'2008'
p300
aS'Nature cell biology'
p301
asS'10198029'
p302
(lp303
I1
aS'Foxl2 is required for commitment to ovary differentiation.'
p304
aS'2005'
p305
aS'Human molecular genetics'
p306
asS'10329468'
p307
(lp308
I1
aS'A new mouse insertional mutation that causes sensorineural deafness and vestibular defects.'
p309
aS'1999'
p310
aS'Genetics'
p311
asS'10194769'
p312
(lp313
I3
aS'Mycobacterium tuberculosis functional network analysis by global subcellular protein profiling.'
p314
aS'2005'
p315
aS'Molecular biology of the cell'
p316
asS'10329261'
p317
(lp318
I1
aS'Localization of low-density detergent-resistant membrane proteins in intact and acrosome-reacted mouse sperm.'
p319
aS'2009'
p320
aS'Biology of reproduction'
p321
asS'10048322'
p322
(lp323
I1
aS'alphaII-betaV spectrin bridges the plasma membrane and cortical lattice in the lateral wall of the auditory outer hair cells.'
p324
aS'2008'
p325
aS'Journal of cell science'
p326
asS'10330347'
p327
(lp328
I1
aS'Induction and myofibrillar targeting of CARP, and suppression of the Nkx2.5 pathway in the MDM mouse with impaired titin-based signaling.'
p329
aS'2004'
p330
aS'Journal of molecular biology'
p331
asS'10099932'
p332
(lp333
I1
aS'Arabidopsis cell wall proteome defined using multidimensional protein identification technology.'
p334
aS'2006'
p335
aS'Proteomics'
p336
asS'10222047'
p337
(lp338
I1
aS'STAT6-mediated displacement of polycomb by trithorax complex establishes long-term maintenance of GATA3 expression in T helper type 2 cells.'
p339
aS'2010'
p340
aS'The Journal of experimental medicine'
p341
asS'10074342'
p342
(lp343
I1
aS'Identification and characterization of novel nicotinic receptor-associated proteins in Caenorhabditis elegans.'
p344
aS'2005'
p345
aS'The EMBO journal'
p346
asS'10099784'
p347
(lp348
I3
aS'Comprehensive analysis of exported proteins from Mycobacterium tuberculosis H37Rv.'
p349
aS'2007'
p350
aS'Proteomics'
p351
asS'10089884'
p352
(lp353
I2
aS'Identification of 118 Arabidopsis transcription factor and 30 ubiquitin-ligase genes responding to chitin, a plant-defense elicitor.'
p354
aS'2007'
p355
aS'Molecular plant-microbe interactions : MPMI'
p356
asS'10197766'
p357
(lp358
I1
aS'NOD2 is a negative regulator of Toll-like receptor 2-mediated T helper type 1 responses.'
p359
aS'2004'
p360
aS'Nature immunology'
p361
asS'10212200'
p362
(lp363
I1
aS'The chloroplast lumen and stromal proteomes of Arabidopsis thaliana show differential sensitivity to short- and long-term exposure to low temperature.'
p364
aS'2006'
p365
aS'The Plant journal : for cell and molecular biology'
p366
asS'10071211'
p367
(lp368
I1
aS'A functional link between Wnt signaling and SKP2-independent p27 turnover in mammary tumors.'
p369
aS'2008'
p370
aS'Genes & development'
p371
asS'10209280'
p372
(lp373
I2
aS'Identification of chromosome inheritance modifiers in Drosophila melanogaster.'
p374
aS'2001'
p375
aS'Genetics'
p376
asS'10024662'
p377
(lp378
I1
aS'An RNA interference screen identifies a novel regulator of target of rapamycin that mediates hypoxia suppression of translation in Drosophila S2 cells.'
p379
aS'2008'
p380
aS'Molecular biology of the cell'
p381
asS'10094503'
p382
(lp383
I1
aS'Proteomic analysis of Legionella-containing phagosomes isolated from Dictyostelium.'
p384
aS'2009'
p385
aS'International journal of medical microbiology : IJMM'
p386
asS'10094501'
p387
(lp388
I2
aS'Systematic identification of protein complexes in Saccharomyces cerevisiae by mass spectrometry.'
p389
aS'2002'
p390
aS'Nature'
p391
asS'10085293'
p392
(lp393
I1
aS'An integrated strategy to study muscle development and myofilament structure in Caenorhabditis elegans.'
p394
aS'2009'
p395
aS'PLoS genetics'
p396
asS'10204830'
p397
(lp398
I1
aS'Decreased synaptic vesicle recycling efficiency and cognitive deficits in amphiphysin 1 knockout mice.'
p399
aS'2002'
p400
aS'Neuron'
p401
asS'10077566'
p402
(lp403
I1
aS'Purification and characterization of native spliceosomes suitable for three-dimensional structural analysis.'
p404
aS'2002'
p405
aS'RNA (New York, N.Y.)'
p406
asS'10322006'
p407
(lp408
I2
aS'Basement membrane composition in the early mouse embryo day 7.'
p409
aS'2005'
p410
aS'Developmental dynamics : an official publication of the American Association of Anatomists'
p411
asS'0007424'
p412
(lp413
I1
aS'Construction of a large extracellular protein interaction network and its resolution by spatiotemporal expression profiling.'
p414
aS'2010'
p415
aS'Molecular & cellular proteomics : MCP'
p416
asS'10219245'
p417
(lp418
I4
aS'The COP9 complex is conserved between plants and mammals and is related to the 26S proteasome regulatory complex.'
p419
aS'1998'
p420
aS'Current biology : CB'
p421
asS'10191834'
p422
(lp423
I1
aS'Comprehensive proteomic profiling of the membrane constituents of a Mycobacterium tuberculosis strain.'
p424
aS'2003'
p425
aS'Molecular & cellular proteomics : MCP'
p426
asS'10050048'
p427
(lp428
I1
aS'Genome-wide RNAi analysis of growth and viability in Drosophila cells.'
p429
aS'2004'
p430
aS'Science (New York, N.Y.)'
p431
asS'10191278'
p432
(lp433
I1
aS'AT_CHLORO, a comprehensive chloroplast proteome database with subplastidial localization and curated information on envelope proteins.'
p434
aS'2010'
p435
aS'Molecular & cellular proteomics : MCP'
p436
asS'10037450'
p437
(lp438
I1
aS'Toxicogenomic analysis of Caenorhabditis elegans reveals novel genes and pathways involved in the resistance to cadmium toxicity.'
p439
aS'2007'
p440
aS'Genome biology'
p441
asS'10097187'
p442
(lp443
I2
aS'Proteomic analysis of the Arabidopsis nucleolus suggests novel nucleolar functions.'
p444
aS'2005'
p445
aS'Molecular biology of the cell'
p446
asS'10220423'
p447
(lp448
I3
aS'A Brg1 mutation that uncouples ATPase activity from chromatin remodeling reveals an essential role for SWI/SNF-related complexes in beta-globin expression and erythroid development.'
p449
aS'2005'
p450
aS'Genes & development'
p451
asS'10097185'
p452
(lp453
I1
aS'Large-scale analysis of in vivo phosphorylated membrane proteins by immobilized metal ion affinity chromatography and mass spectrometry.'
p454
aS'2003'
p455
aS'Molecular & cellular proteomics : MCP'
p456
asS'10217761'
p457
(lp458
I1
aS'A novel SR-related protein is required for the second step of Pre-mRNA splicing.'
p459
aS'2005'
p460
aS'Molecular and cellular biology'
p461
asS'10191273'
p462
(lp463
I3
aS'The Arabidopsis thaliana chloroplast proteome reveals pathway abundance and novel protein functions.'
p464
aS'2004'
p465
aS'Current biology : CB'
p466
asS'10190887'
p467
(lp468
I2
aS'Systematic subcellular localization of novel proteins identified by large-scale cDNA sequencing.'
p469
aS'2000'
p470
aS'EMBO reports'
p471
asS'10102632'
p472
(lp473
I6
aS'Proteomic study of the Arabidopsis thaliana chloroplastic envelope membrane utilizing alternatives to traditional two-dimensional electrophoresis.'
p474
aS'2003'
p475
aS'Journal of proteome research'
p476
asS'10329015'
p477
(lp478
I1
aS'Role of beta-catenin in synaptic vesicle localization and presynaptic assembly.'
p479
aS'2003'
p480
aS'Neuron'
p481
asS'10233158'
p482
(lp483
I6
aS'Mitochondrial localization and function of a subset of 22q11 deletion syndrome candidate genes.'
p484
aS'2008'
p485
aS'Molecular and cellular neurosciences'
p486
asS'10224139'
p487
(lp488
I1
aS'CD40 stimulation induces Pax5/BSAP and EBF activation through a APE/Ref-1-dependent redox mechanism.'
p489
aS'2004'
p490
aS'The Journal of biological chemistry'
p491
asS'10219595'
p492
(lp493
I2
aS'Expression of CD44 in Apc and Tcf mutant mice implies regulation by the WNT pathway.'
p494
aS'1999'
p495
aS'The American journal of pathology'
p496
asS'10072785'
p497
(lp498
I1
aS'A gain-of-function suppressor screen for genes involved in dorsal-ventral boundary formation in the Drosophila wing.'
p499
aS'2008'
p500
aS'Genetics'
p501
asS'10329480'
p502
(lp503
I1
aS'Neuroepithelial defects of the inner ear in a new allele of the mouse mutation Ames waltzer.'
p504
aS'2000'
p505
aS'Hearing research'
p506
asS'10072780'
p507
(lp508
I10
aS'RNAi analysis of genes expressed in the ovary of Caenorhabditis elegans.'
p509
aS'2000'
p510
aS'Current biology : CB'
p511
asS'10318902'
p512
(lp513
I1
aS'Left-right pattern of cardiac BMP4 may drive asymmetry of the heart in zebrafish.'
p514
aS'1997'
p515
aS'Development (Cambridge, England)'
p516
asS'10022899'
p517
(lp518
I2
aS'The endocytic pathway mediates cell entry of dsRNA to induce RNAi silencing.'
p519
aS'2006'
p520
aS'Nature cell biology'
p521
asS'10069332'
p522
(lp523
I1
aS'A phenotypic profile of the Candida albicans regulatory network.'
p524
aS'2009'
p525
aS'PLoS genetics'
p526
asS'10024478'
p527
(lp528
I2
aS'Comparative analysis of Saccharomyces cerevisiae WW domains and their interacting proteins.'
p529
aS'2006'
p530
aS'Genome biology'
p531
asS'10022891'
p532
(lp533
I3
aS'Role of the JIP4 scaffold protein in the regulation of mitogen-activated protein kinase signaling pathways.'
p534
aS'2005'
p535
aS'Molecular and cellular biology'
p536
asS'10330487'
p537
(lp538
I1
aS'GATA-3 is required for early T lineage progenitor development.'
p539
aS'2009'
p540
aS'The Journal of experimental medicine'
p541
asS'10068632'
p542
(lp543
I2
aS'Dendrite self-avoidance is controlled by Dscam.'
p544
aS'2007'
p545
aS'Cell'
p546
asS'10077664'
p547
(lp548
I1
aS'Gene activities that mediate increased life span of C. elegans insulin-like signaling mutants.'
p549
aS'2007'
p550
aS'Genes & development'
p551
asS'10229231'
p552
(lp553
I1
aS'Impaired IgG-dependent anaphylaxis and Arthus reaction in Fc gamma RIII (CD16) deficient mice.'
p554
aS'1996'
p555
aS'Immunity'
p556
asS'10329163'
p557
(lp558
I5
aS'Enhanced tolerance to oxidative stress in transgenic Arabidopsis plants expressing proteins of unknown function.'
p559
aS'2008'
p560
aS'Plant physiology'
p561
asS'10329735'
p562
(lp563
I4
aS'Fine genetic and comparative mapping of the deafness mutation Ames waltzer on mouse chromosome 10.'
p564
aS'1998'
p565
aS'Genomics'
p566
asS'10196144'
p567
(lp568
I2
aS'Sorting signals, N-terminal modifications and abundance of the chloroplast proteome.'
p569
aS'2008'
p570
aS'PloS one'
p571
asS'10329739'
p572
(lp573
I1
aS'PCDH15 is expressed in the neurosensory epithelium of the eye and ear and mutant alleles are responsible for both USH1F and DFNB23.'
p574
aS'2003'
p575
aS'Human molecular genetics'
p576
asS'10198244'
p577
(lp578
I1
aS'Detailed characterization of the mouse embryonic stem cell transcriptome reveals novel genes and intergenic splicing associated with pluripotency.'
p579
aS'2008'
p580
aS'BMC genomics'
p581
asS'10080180'
p582
(lp583
I4
aS'Chromatin Central: towards the comparative proteome by accurate mapping of the yeast proteomic environment.'
p584
aS'2008'
p585
aS'Genome biology'
p586
asS'10318835'
p587
(lp588
I1
aS'A collection of Ds insertional mutants associated with defects in male gametophyte development and function in Arabidopsis thaliana.'
p589
aS'2009'
p590
aS'Genetics'
p591
asS'10029995'
p592
(lp593
I1
aS'Molecular dissection of plant cytokinesis and phragmoplast structure: a survey of GFP-tagged proteins.'
p594
aS'2004'
p595
aS'The Plant journal : for cell and molecular biology'
p596
asS'10207168'
p597
(lp598
I3
aS'Dissecting transcription regulatory pathways through a new bacterial one-hybrid reporter system.'
p599
aS'2009'
p600
aS'Genome research'
p601
asS'10233424'
p602
(lp603
I1
aS'Ethanol-regulated genes that contribute to ethanol sensitivity and rapid tolerance in Drosophila.'
p604
aS'2010'
p605
aS'Alcoholism, clinical and experimental research'
p606
asS'10029992'
p607
(lp608
I1
aS'Affinity purification of the Arabidopsis 26 S proteasome reveals a diverse array of plant proteolytic complexes.'
p609
aS'2010'
p610
aS'The Journal of biological chemistry'
p611
asS'10029993'
p612
(lp613
I1
aS'The L1 adhesion molecule is a cellular ligand for VLA-5.'
p614
aS'1995'
p615
aS'The Journal of cell biology'
p616
asS'10230407'
p617
(lp618
I1
aS'Endocardial and epicardial derived FGF signals regulate myocardial proliferation and differentiation in vivo.'
p619
aS'2005'
p620
aS'Developmental cell'
p621
asS'10197627'
p622
(lp623
I2
aS'Menin is required for bone morphogenetic protein 2- and transforming growth factor beta-regulated osteoblastic differentiation through interaction with Smads and Runx2.'
p624
aS'2004'
p625
aS'The Journal of biological chemistry'
p626
asS'10089879'
p627
(lp628
I4
aS'Mutations in many genes affect aggressive behavior in Drosophila melanogaster.'
p629
aS'2009'
p630
aS'BMC biology'
p631
asS'10094313'
p632
(lp633
I4
aS'Functional genomic analysis of C. elegans molting.'
p634
aS'2005'
p635
aS'PLoS biology'
p636
asS'10205060'
p637
(lp638
I3
aS'NF2 deficiency promotes tumorigenesis and metastasis by destabilizing adherens junctions.'
p639
aS'2003'
p640
aS'Genes & development'
p641
asS'10191121'
p642
(lp643
I1
aS'Genome-wide analysis identifies a general requirement for polarity proteins in endocytic traffic.'
p644
aS'2007'
p645
aS'Nature cell biology'
p646
asS'10191088'
p647
(lp648
I1
aS'Proteome survey reveals modularity of the yeast cell machinery.'
p649
aS'2006'
p650
aS'Nature'
p651
asS'10192396'
p652
(lp653
I2
aS'Arabidopsis plasmodesmal proteome.'
p654
aS'2011'
p655
aS'PloS one'
p656
asS'10068647'
p657
(lp658
I8
aS'A double S shape provides the structural basis for the extraordinary binding specificity of Dscam isoforms.'
p659
aS'2008'
p660
aS'Cell'
p661
asS'10049371'
p662
(lp663
I1
aS'The yeast nuclear pore complex: composition, architecture, and transport mechanism.'
p664
aS'2000'
p665
aS'The Journal of cell biology'
p666
asS'10021457'
p667
(lp668
I1
aS'An orthogonal proteomic-genomic screen identifies AIM2 as a cytoplasmic DNA sensor for the inflammasome.'
p669
aS'2009'
p670
aS'Nature immunology'
p671
asS'10074427'
p672
(lp673
I2
aS'Systematic identification and functional screens of uncharacterized proteins associated with eukaryotic ribosomal complexes.'
p674
aS'2006'
p675
aS'Genes & development'
p676
asS'10199565'
p677
(lp678
I1
aS'Identification and characterization of a set of conserved and new regulators of cytoskeletal organization, cell morphology and migration.'
p679
aS'2011'
p680
aS'BMC biology'
p681
asS'10097163'
p682
(lp683
I1
aS'Analysis of the Arabidopsis cytosolic ribosome proteome provides detailed insights into its components and their post-translational modification.'
p684
aS'2008'
p685
aS'Molecular & cellular proteomics : MCP'
p686
asS'10232633'
p687
(lp688
I2
aS'Toward an interaction map of the two-component signaling pathway of Arabidopsis thaliana.'
p689
aS'2008'
p690
aS'Journal of proteome research'
p691
asS'10330413'
p692
(lp693
I2
aS'Dynein modifiers in C. elegans: light chains suppress conditional heavy chain mutants.'
p694
aS'2007'
p695
aS'PLoS genetics'
p696
asS'10085096'
p697
(lp698
I3
aS'A genome-wide RNAi screen identifies core components of the G(2)-M DNA damage checkpoint.'
p699
aS'2011'
p700
aS'Science signaling'
p701
asS'10209962'
p702
(lp703
I1
aS'Fgf9 induces proliferation and nuclear localization of FGFR2 in Sertoli precursors during male sex determination.'
p704
aS'2004'
p705
aS'Development (Cambridge, England)'
p706
asS'10210776'
p707
(lp708
I1
aS'Foxp3 interacts with nuclear factor of activated T cells and NF-kappa B to repress cytokine gene expression and effector functions of T helper cells.'
p709
aS'2005'
p710
aS'Proceedings of the National Academy of Sciences of the United States of America'
p711
asS'10028181'
p712
(lp713
I2
aS'New components of the Drosophila fusome suggest it plays novel roles in signaling and transport.'
p714
aS'2008'
p715
aS'Developmental biology'
p716
asS'10028182'
p717
(lp718
I3
aS'Liar, a novel Lyn-binding nuclear/cytoplasmic shuttling protein that influences erythropoietin-induced differentiation.'
p719
aS'2009'
p720
aS'Blood'
p721
asS'10198110'
p722
(lp723
I1
aS'pTAC2, -6, and -12 are components of the transcriptionally active plastid chromosome that are required for plastid gene expression.'
p724
aS'2006'
p725
aS'The Plant cell'
p726
asS'10080924'
p727
(lp728
I1
aS'Proteomic characterization of evolutionarily conserved and variable proteins of Arabidopsis cytosolic ribosomes.'
p729
aS'2005'
p730
aS'Plant physiology'
p731
asS'10320476'
p732
(lp733
I3
aS'Perturbation analysis of heterochromatin-mediated gene silencing and somatic inheritance.'
p734
aS'2010'
p735
aS'PLoS genetics'
p736
asS'10225998'
p737
(lp738
I2
aS'Cooperative NCoR/SMRT interactions establish a corepressor-based strategy for integration of inflammatory and anti-inflammatory signaling pathways.'
p739
aS'2009'
p740
aS'Genes & development'
p741
asS'10027972'
p742
(lp743
I2
aS'Abeta-degrading endopeptidase, neprilysin, in mouse brain: synaptic and axonal localization inversely correlating with Abeta pathology.'
p744
aS'2002'
p745
aS'Neuroscience research'
p746
asS'10021330'
p747
(lp748
I4
aS'Secalonic acid D alters the expression and phosphorylation of the transcription factors and their binding to cAMP response element in developing murine secondary palate.'
p749
aS'2000'
p750
aS'Journal of craniofacial genetics and developmental biology'
p751
asS'10329152'
p752
(lp753
I4
aS'Rho GTPases regulate axon growth through convergent and divergent signaling pathways.'
p754
aS'2004'
p755
aS'Neuron'
p756
asS'10187858'
p757
(lp758
I2
aS'Genome-wide RNAi analysis of Caenorhabditis elegans fat regulatory genes.'
p759
aS'2003'
p760
aS'Nature'
p761
asS'10219091'
p762
(lp763
I3
aS'Tcf3 and Tcf4 are essential for long-term homeostasis of skin epithelia.'
p764
aS'2009'
p765
aS'Nature genetics'
p766
asS'10026184'
p767
(lp768
I1
aS'Proteome map of the chloroplast lumen of Arabidopsis thaliana.'
p769
aS'2002'
p770
aS'The Journal of biological chemistry'
p771
asS'10085234'
p772
(lp773
I2
aS'A comprehensive resource of interacting protein regions for refining human transcription factor networks.'
p774
aS'2010'
p775
aS'PloS one'
p776
asS'10050756'
p777
(lp778
I2
aS'Chromosomal assignments of 23 biochemical loci of the rat by using rat x mouse somatic cell hybrids.'
p779
aS'1991'
p780
aS'Cytogenetics and cell genetics'
p781
asS'10212254'
p782
(lp783
I3
aS'Fibroblast growth factor receptors cooperate to regulate neural progenitor properties in the developing midbrain and hindbrain.'
p784
aS'2007'
p785
aS'The Journal of neuroscience : the official journal of the Society for Neuroscience'
p786
asS'10097068'
p787
(lp788
I2
aS'Analysis of Candida albicans plasma membrane proteome.'
p789
aS'2009'
p790
aS'Proteomics'
p791
asS'10327052'
p792
(lp793
I2
aS'Nucleophosmin serves as a rate-limiting nuclear export chaperone for the Mammalian ribosome.'
p794
aS'2008'
p795
aS'Molecular and cellular biology'
p796
asS'10325430'
p797
(lp798
I1
aS'The Drosophila protein palmitoylome: characterizing palmitoyl-thioesterases and DHHC palmitoyl-transferases.'
p799
aS'2008'
p800
aS'Fly'
p801
asS'10231031'
p802
(lp803
I1
aS'Regulation of fibroblast growth factor-23 signaling by klotho.'
p804
aS'2006'
p805
aS'The Journal of biological chemistry'
p806
asS'10318862'
p807
(lp808
I4
aS'Expression of the Bcl-2 protein BAD promotes prostate cancer growth.'
p809
aS'2009'
p810
aS'PloS one'
p811
asS'10022918'
p812
(lp813
I2
aS'An FGF-WNT gene regulatory network controls lung mesenchyme development.'
p814
aS'2008'
p815
aS'Developmental biology'
p816
asS'10318867'
p817
(lp818
I2
aS'Search for kinases related to transition of growth polarity in fission yeast.'
p819
aS'2010'
p820
aS'Bioscience, biotechnology, and biochemistry'
p821
asS'10231363'
p822
(lp823
I2
aS'Proteomic survey of copper-binding proteins in Arabidopsis roots by immobilized metal affinity chromatography and mass spectrometry.'
p824
aS'2006'
p825
aS'Proteomics'
p826
asS'10075692'
p827
(lp828
I2
aS'Functional genomic approach to identify novel genes involved in the regulation of oxidative stress resistance and animal lifespan.'
p829
aS'2007'
p830
aS'Aging cell'
p831
asS'10068674'
p832
(lp833
I6
aS'Dscam guides embryonic axons by Netrin-dependent and -independent functions.'
p834
aS'2008'
p835
aS'Development (Cambridge, England)'
p836
asS'10091328'
p837
(lp838
I3
aS'Proteomic profiling of tandem affinity purified 14-3-3 protein complexes in Arabidopsis thaliana.'
p839
aS'2009'
p840
aS'Proteomics'
p841
asS'10091591'
p842
(lp843
I2
aS'Mouse model resources for vision research.'
p844
aS'2011'
p845
aS'Journal of ophthalmology'
p846
asS'10220418'
p847
(lp848
I3
aS'Signaling complex formation of phospholipase Cbeta4 with metabotropic glutamate receptor type 1alpha and 1,4,5-trisphosphate receptor at the perisynapse and endoplasmic reticulum in the mouse brain.'
p849
aS'2004'
p850
aS'The European journal of neuroscience'
p851
asS'10077620'
p852
(lp853
I2
aS'The plasma membrane proteome of Saccharomyces cerevisiae and its response to the antifungal calcofluor.'
p854
aS'2006'
p855
aS'Proteomics'
p856
asS'10328920'
p857
(lp858
I2
aS'A single Drosophila melanogaster myosin light chain kinase gene produces multiple isoforms whose activities are differently regulated.'
p859
aS'1996'
p860
aS'Genes to cells : devoted to molecular & cellular mechanisms'
p861
asS'10026192'
p862
(lp863
I2
aS'Characterization and analysis of posttranslational modifications of the human large cytoplasmic ribosomal subunit proteins by mass spectrometry and Edman sequencing.'
p864
aS'2003'
p865
aS'Journal of protein chemistry'
p866
asS'10091325'
p867
(lp868
I1
aS'Karrikins enhance light responses during germination and seedling development in Arabidopsis thaliana.'
p869
aS'2010'
p870
aS'Proceedings of the National Academy of Sciences of the United States of America'
p871
asS'10025671'
p872
(lp873
I1
aS'Mass spectrometric analysis of the secretome of Candida albicans.'
p874
aS'2010'
p875
aS'Yeast (Chichester, England)'
p876
asS'10037764'
p877
(lp878
I6
aS'Network organization of the human autophagy system.'
p879
aS'2010'
p880
aS'Nature'
p881
asS'10094685'
p882
(lp883
I1
aS'Divalent metal ions in plant mitochondria and their role in interactions with proteins and oxidative stress-induced damage to respiratory function.'
p884
aS'2010'
p885
aS'Plant physiology'
p886
asS'10231390'
p887
(lp888
I1
aS'Dynamic genetic interactions determine odor-guided behavior in Drosophila melanogaster.'
p889
aS'2006'
p890
aS'Genetics'
p891
asS'10208740'
p892
(lp893
I3
aS'GIGYF2 gene disruption in mice results in neurodegeneration and altered insulin-like growth factor signaling.'
p894
aS'2009'
p895
aS'Human molecular genetics'
p896
asS'10208747'
p897
(lp898
I1
aS'A role for p38 stress-activated protein kinase in regulation of cell growth via TORC1.'
p899
aS'2010'
p900
aS'Molecular and cellular biology'
p901
asS'10233162'
p902
(lp903
I2
aS'Wnt11 promotes osteoblast maturation and mineralization through R-spondin 2.'
p904
aS'2009'
p905
aS'The Journal of biological chemistry'
p906
asS'10205164'
p907
(lp908
I1
aS'T-cell factor 4N (TCF-4N), a novel isoform of mouse TCF-4, synergizes with beta-catenin to coactivate C/EBPalpha and steroidogenic factor 1 transcription factors.'
p909
aS'2003'
p910
aS'Molecular and cellular biology'
p911
asS'10205167'
p912
(lp913
I1
aS'Deficiency of CD11b or CD11d results in reduced staphylococcal enterotoxin-induced T cell response and T cell phenotypic changes.'
p914
aS'2004'
p915
aS'Journal of immunology (Baltimore, Md. : 1950)'
p916
asS'10209262'
p917
(lp918
I2
aS'Clasps are CLIP-115 and -170 associating proteins involved in the regional regulation of microtubule dynamics in motile fibroblasts.'
p919
aS'2001'
p920
aS'Cell'
p921
asS'10329679'
p922
(lp923
I2
aS'Electron microscopic studies of capillary permeability in normal and ames waltzer deaf mice.'
p924
aS'1971'
p925
aS'Acta oto-laryngologica'
p926
asS'10231569'
p927
(lp928
I2
aS'Sox17 is essential for the specification of cardiac mesoderm in embryonic stem cells.'
p929
aS'2007'
p930
aS'Proceedings of the National Academy of Sciences of the United States of America'
p931
asS'10330180'
p932
(lp933
I2
aS'FGF10 is an inducer and Pax6 a competence factor for lacrimal gland development.'
p934
aS'2000'
p935
aS'Development (Cambridge, England)'
p936
asS'10225425'
p937
(lp938
I1
aS'Diverse chromatin remodeling genes antagonize the Rb-involved SynMuv pathways in C. elegans.'
p939
aS'2006'
p940
aS'PLoS genetics'
p941
asS'10021387'
p942
(lp943
I1
aS'E proteins are required to activate germline transcription of the TCR Vbeta8.2 gene.'
p944
aS'2008'
p945
aS'European journal of immunology'
p946
asS'10215850'
p947
(lp948
I1
aS'Inhibition of adipogenesis by Wnt signaling.'
p949
aS'2000'
p950
aS'Science (New York, N.Y.)'
p951
asS'10328854'
p952
(lp953
I2
aS'Regulation of GATA-3 expression during CD4 lineage differentiation.'
p954
aS'2011'
p955
aS'Journal of immunology (Baltimore, Md. : 1950)'
p956
asS'10330179'
p957
(lp958
I4
aS'Stat5 is required for IL-2-induced cell cycle progression of peripheral T cells.'
p959
aS'1999'
p960
aS'Immunity'
p961
asS'10077652'
p962
(lp963
I2
aS'A systematic RNA interference screen reveals a cell migration gene network in C. elegans.'
p964
aS'2006'
p965
aS'Journal of cell science'
p966
asS'10206965'
p967
(lp968
I1
aS'Mycobacterial mutants with defective control of phagosomal acidification.'
p969
aS'2005'
p970
aS'PLoS pathogens'
p971
asS'10069815'
p972
(lp973
I2
aS'E-cadherin is essential for in vivo epidermal barrier function by regulating tight junctions.'
p974
aS'2005'
p975
aS'The EMBO journal'
p976
asS'10027744'
p977
(lp978
I1
aS'Large-scale screening of intracellular protein localization in living fission yeast cells by the use of a GFP-fusion genomic DNA library.'
p979
aS'2000'
p980
aS'Genes to cells : devoted to molecular & cellular mechanisms'
p981
asS'10213677'
p982
(lp983
I1
aS'Tissue specific effects of ommochrome pathway mutations in Drosophila melanogaster.'
p984
aS'1991'
p985
aS'Genetical research'
p986
asS'10074716'
p987
(lp988
I2
aS'Systematic definition of protein constituents along the major polarization axis reveals an adaptive reuse of the polarization machinery in pheromone-treated budding yeast.'
p989
aS'2009'
p990
aS'Journal of proteome research'
p991
asS'10027563'
p992
(lp993
I1
aS'Toward a molecular genetic analysis of spermatogenesis in Drosophila melanogaster: characterization of male-sterile mutants generated by single P element mutagenesis.'
p994
aS'1993'
p995
aS'Genetics'
p996
asS'10074711'
p997
(lp998
I2
aS'Proteomic analysis of the yeast mitochondrial outer membrane reveals accumulation of a subclass of preproteins.'
p999
aS'2006'
p1000
aS'Molecular biology of the cell'
p1001
asS'10196470'
p1002
(lp1003
I3
aS'Toward a confocal subcellular atlas of the human proteome.'
p1004
aS'2008'
p1005
aS'Molecular & cellular proteomics : MCP'
p1006
asS'10196471'
p1007
(lp1008
I2
aS'Cutting edge: Toll-like receptor signaling in macrophages induces ligands for the NKG2D receptor.'
p1009
aS'2004'
p1010
aS'Journal of immunology (Baltimore, Md. : 1950)'
p1011
asS'10207056'
p1012
(lp1013
I3
aS'Distinct target-derived signals organize formation, maturation, and maintenance of motor nerve terminals.'
p1014
aS'2007'
p1015
aS'Cell'
p1016
asS'10065630'
p1017
(lp1018
I2
aS'Comprehensive functional analysis of Mycobacterium tuberculosis toxin-antitoxin systems: implications for pathogenesis, stress responses, and evolution.'
p1019
aS'2009'
p1020
aS'PLoS genetics'
p1021
asS'10224084'
p1022
(lp1023
I1
aS'Meis homeoproteins directly regulate Pax6 during vertebrate lens morphogenesis.'
p1024
aS'2002'
p1025
aS'Genes & development'
p1026
asS'10191050'
p1027
(lp1028
I1
aS'A high-resolution C. elegans essential gene network based on phenotypic profiling of a complex tissue.'
p1029
aS'2011'
p1030
aS'Cell'
p1031
asS'10198159'
p1032
(lp1033
I1
aS'Axin is a scaffold protein in TGF-beta signaling that promotes degradation of Smad7 by Arkadia.'
p1034
aS'2006'
p1035
aS'The EMBO journal'
p1036
asS'10191116'
p1037
(lp1038
I3
aS'Membrane proteomic analysis of Arabidopsis thaliana using alternative solubilization techniques.'
p1039
aS'2007'
p1040
aS'Journal of proteome research'
p1041
asS'10191111'
p1042
(lp1043
I2
aS'Large-scale RNAi screens identify novel genes that interact with the C. elegans retinoblastoma pathway as well as splicing-related components with synMuv B activity.'
p1044
aS'2007'
p1045
aS'BMC developmental biology'
p1046
asS'10191112'
p1047
(lp1048
I1
aS'Large-scale analysis of gene function in Caenorhabditis elegans by high-throughput RNAi.'
p1049
aS'2001'
p1050
aS'Current biology : CB'
p1051
asS'10098503'
p1052
(lp1053
I1
aS'New functions of the thylakoid membrane proteome of Arabidopsis thaliana revealed by a simple, fast, and versatile fractionation strategy.'
p1054
aS'2004'
p1055
aS'The Journal of biological chemistry'
p1056
asS'10067850'
p1057
(lp1058
I1
aS'Alternative splicing of Drosophila Dscam generates axon guidance receptors that exhibit isoform-specific homophilic binding.'
p1059
aS'2004'
p1060
aS'Cell'
p1061
asS'10074373'
p1062
(lp1063
I3
aS'Identification of novel centrosomal proteins in Dictyostelium discoideum by comparative proteomic approaches.'
p1064
aS'2006'
p1065
aS'Journal of proteome research'
p1066
asS'10101022'
p1067
(lp1068
I1
aS'Conservation of the protein composition and electron microscopy structure of Drosophila melanogaster and human spliceosomal complexes.'
p1069
aS'2009'
p1070
aS'Molecular and cellular biology'
p1071
asS'10224250'
p1072
(lp1073
I1
aS'Proteomics profiling of nuclear proteins for kidney fibroblasts suggests hypoxia, meiosis, and cancer may meet in the nucleus.'
p1074
aS'2005'
p1075
aS'Proteomics'
p1076
asS'10063806'
p1077
(lp1078
I4
aS'Opposing LSD1 complexes function in developmental gene activation and repression programmes.'
p1079
aS'2007'
p1080
aS'Nature'
p1081
asS'10220328'
p1082
(lp1083
I2
aS'Molecular cloning of the mouse APS as a member of the Lnk family adaptor proteins.'
p1084
aS'2000'
p1085
aS'Biochemical and biophysical research communications'
p1086
asS'10074094'
p1087
(lp1088
I1
aS'Identification of zebrafish insertional mutants with defects in visual system development and function.'
p1089
aS'2005'
p1090
aS'Genetics'
p1091
asS'10198428'
p1092
(lp1093
I1
aS'Characterization of the human COP9 signalosome complex using affinity purification and mass spectrometry.'
p1094
aS'2008'
p1095
aS'Journal of proteome research'
p1096
asS'10319321'
p1097
(lp1098
I4
aS'Multiple basic-leucine zipper proteins regulate induction of the mouse heme oxygenase-1 gene by arsenite.'
p1099
aS'2002'
p1100
aS'Archives of biochemistry and biophysics'
p1101
asS'10078962'
p1102
(lp1103
I1
aS'A systematic RNAi screen for longevity genes in C. elegans.'
p1104
aS'2005'
p1105
aS'Genes & development'
p1106
asS'10231557'
p1107
(lp1108
I1
aS'Insect baculoviruses strongly potentiate adaptive immune responses by inducing type I IFN.'
p1109
aS'2007'
p1110
aS'Journal of immunology (Baltimore, Md. : 1950)'
p1111
asS'10195194'
p1112
(lp1113
I3
aS'Systematic functional analysis of the Caenorhabditis elegans genome using RNAi.'
p1114
aS'2003'
p1115
aS'Nature'
p1116
asS'10082978'
p1117
(lp1118
I3
aS'Loss of LIN-35, the Caenorhabditis elegans ortholog of the tumor suppressor p105Rb, results in enhanced RNA interference.'
p1119
aS'2006'
p1120
aS'Genome biology'
p1121
asS'10025941'
p1122
(lp1123
I1
aS'Proteomics of loosely bound cell wall proteins of Arabidopsis thaliana cell suspension cultures: a critical analysis.'
p1124
aS'2003'
p1125
aS'Electrophoresis'
p1126
asS'10077571'
p1127
(lp1128
I1
aS'Identification of alternative splicing regulators by RNA interference in Drosophila.'
p1129
aS'2004'
p1130
aS'Proceedings of the National Academy of Sciences of the United States of America'
p1131
asS'10021369'
p1132
(lp1133
I2
aS'Analysis of HSF4 binding regions reveals its necessity for gene regulation during development and heat shock response in mouse lenses.'
p1134
aS'2008'
p1135
aS'The Journal of biological chemistry'
p1136
asS'10077572'
p1137
(lp1138
I2
aS'A map of the interactome network of the metazoan C. elegans.'
p1139
aS'2004'
p1140
aS'Science (New York, N.Y.)'
p1141
asS'10077576'
p1142
(lp1143
I5
aS'High-throughput analysis of spatio-temporal dynamics in Dictyostelium.'
p1144
aS'2007'
p1145
aS'Genome biology'
p1146
asS'10320934'
p1147
(lp1148
I1
aS'The BCL2A1 gene as a pre-T cell receptor-induced regulator of thymocyte survival.'
p1149
aS'2005'
p1150
aS'The Journal of experimental medicine'
p1151
asS'10322541'
p1152
(lp1153
I1
aS'Novel genes required for meiotic chromosome segregation are identified by a high-throughput knockout screen in fission yeast.'
p1154
aS'2005'
p1155
aS'Current biology : CB'
p1156
asS'10049528'
p1157
(lp1158
I1
aS'The transitional junction: a new functional subcellular domain at the intercalated disc.'
p1159
aS'2006'
p1160
aS'Molecular biology of the cell'
p1161
asS'10217799'
p1162
(lp1163
I2
aS'The KIF3 motor transports N-cadherin and organizes the developing neuroepithelium.'
p1164
aS'2005'
p1165
aS'Nature cell biology'
p1166
asS'10096059'
p1167
(lp1168
I2
aS'A complexomic study of Escherichia coli using two-dimensional blue native/SDS polyacrylamide gel electrophoresis.'
p1169
aS'2006'
p1170
aS'Electrophoresis'
p1171
asS'10229687'
p1172
(lp1173
I5
aS'Two members of the Tcf family implicated in Wnt/beta-catenin signaling during embryogenesis in the mouse.'
p1174
aS'1998'
p1175
aS'Molecular and cellular biology'
p1176
asS'10051504'
p1177
(lp1178
I1
aS'Corepressors selectively control the transcriptional activity of PPARgamma in adipocytes.'
p1179
aS'2005'
p1180
aS'Genes & development'
p1181
asS'10068039'
p1182
(lp1183
I1
aS'The molecular diversity of Dscam is functionally required for neuronal wiring specificity in Drosophila.'
p1184
aS'2006'
p1185
aS'Cell'
p1186
asS'10209228'
p1187
(lp1188
I2
aS'Isolation of a novel histone deacetylase reveals that class I and class II deacetylases promote SMRT-mediated repression.'
p1189
aS'2000'
p1190
aS'Genes & development'
p1191
asS'10203252'
p1192
(lp1193
I1
aS'Use of cDNA subtraction and RNA interference screens in combination reveals genes required for germ-line development in Caenorhabditis elegans.'
p1194
aS'2001'
p1195
aS'Proceedings of the National Academy of Sciences of the United States of America'
p1196
asS'10087258'
p1197
(lp1198
I4
aS'A library of yeast transcription factor motifs reveals a widespread function for Rsc3 in targeting nucleosome exclusion at promoters.'
p1199
aS'2008'
p1200
aS'Molecular cell'
p1201
asS'10053004'
p1202
(lp1203
I1
aS'Axon guidance genes identified in a large-scale RNAi screen using the RNAi-hypersensitive Caenorhabditis elegans strain nre-1(hd20) lin-15b(hd126).'
p1204
aS'2007'
p1205
aS'Proceedings of the National Academy of Sciences of the United States of America'
p1206
asS'10026266'
p1207
(lp1208
I2
aS'Tocopherol cyclase (VTE1) localization and vitamin E accumulation in chloroplast plastoglobule lipoprotein particles.'
p1209
aS'2006'
p1210
aS'The Journal of biological chemistry'
p1211
asS'10224108'
p1212
(lp1213
I1
aS'Proteomic analysis of glycosylphosphatidylinositol-anchored membrane proteins.'
p1214
aS'2003'
p1215
aS'Molecular & cellular proteomics : MCP'
p1216
asS'10205894'
p1217
(lp1218
I1
aS'TIF1delta, a novel HP1-interacting member of the transcriptional intermediary factor 1 (TIF1) family expressed by elongating spermatids.'
p1219
aS'2004'
p1220
aS'The Journal of biological chemistry'
p1221
asS'10026269'
p1222
(lp1223
I1
aS'Modifications to the Arabidopsis defense proteome occur prior to significant transcriptional change in response to inoculation with Pseudomonas syringae.'
p1224
aS'2006'
p1225
aS'Plant physiology'
p1226
asS'10224102'
p1227
(lp1228
I1
aS'A novel heterodimerization domain, CRM1, and 14-3-3 control subcellular localization of the MondoA-Mlx heterocomplex.'
p1229
aS'2002'
p1230
aS'Molecular and cellular biology'
p1231
asS'10103065'
p1232
(lp1233
I1
aS'The vegetative vacuole proteome of Arabidopsis thaliana reveals predicted and unexpected proteins.'
p1234
aS'2004'
p1235
aS'The Plant cell'
p1236
asS'10072196'
p1237
(lp1238
I1
aS'ER71 acts downstream of BMP, Notch, and Wnt signaling in blood and vessel progenitor specification.'
p1239
aS'2008'
p1240
aS'Cell stem cell'
p1241
asS'10092506'
p1242
(lp1243
I2
aS'Bioinformatics and cellular signaling.'
p1244
aS'2004'
p1245
aS'Current opinion in biotechnology'
p1246
asS'10022925'
p1247
(lp1248
I2
aS'Requirement for p38alpha in erythropoietin expression: a role for stress kinases in erythropoiesis.'
p1249
aS'2000'
p1250
aS'Cell'
p1251
asS'10094048'
p1252
(lp1253
I4
aS'High-throughput protein localization in Arabidopsis using Agrobacterium-mediated transient expression of GFP-ORF fusions.'
p1254
aS'2005'
p1255
aS'The Plant journal : for cell and molecular biology'
p1256
asS'10022927'
p1257
(lp1258
I1
aS'A human protein-protein interaction network: a resource for annotating the proteome.'
p1259
aS'2005'
p1260
aS'Cell'
p1261
asS'10022921'
p1262
(lp1263
I1
aS'Mac-1 (CD11b/CD18) and CD45 mediate the adhesion of hematopoietic progenitor cells to stromal cell elements via recognition of stromal heparan sulfate.'
p1264
aS'1994'
p1265
aS'Blood'
p1266
asS'10077614'
p1267
(lp1268
I2
aS'Genome-wide analysis of germ cell proliferation in C.elegans identifies VRK-1 as a key regulator of CEP-1/p53.'
p1269
aS'2010'
p1270
aS'Developmental biology'
p1271
asS'10077615'
p1272
(lp1273
I1
aS'Functional genomic analysis of RNA interference in C. elegans.'
p1274
aS'2005'
p1275
aS'Science (New York, N.Y.)'
p1276
asS'10024464'
p1277
(lp1278
I2
aS'Protein profiling of plastoglobules in chloroplasts and chromoplasts. A surprising site for differential accumulation of metabolic enzymes.'
p1279
aS'2006'
p1280
aS'Plant physiology'
p1281
asS'10024460'
p1282
(lp1283
I4
aS'Null mutation of calpain 3 (p94) in mice causes abnormal sarcomere formation in vivo and in vitro.'
p1284
aS'2004'
p1285
aS'Human molecular genetics'
p1286
asS'10095777'
p1287
(lp1288
I1
aS'New genes with roles in the C. elegans embryo revealed using RNAi of ovary-enriched ORFeome clones.'
p1289
aS'2005'
p1290
aS'Genome research'
p1291
asS'10225951'
p1292
(lp1293
I1
aS'Innate immune gene expression in individual zebrafish after Listonella anguillarum inoculation.'
p1294
aS'2007'
p1295
aS'Fish & shellfish immunology'
p1296
asS'10101162'
p1297
(lp1298
I2
aS'Global transcriptional responses of fission yeast to environmental stress.'
p1299
aS'2003'
p1300
aS'Molecular biology of the cell'
p1301
asS'10051594'
p1302
(lp1303
I3
aS'Mutations affecting the cardiovascular system and other internal organs in zebrafish.'
p1304
aS'1996'
p1305
aS'Development (Cambridge, England)'
p1306
asS'10101169'
p1307
(lp1308
I2
aS'The early responses of Arabidopsis thaliana cells to cadmium exposure explored by protein and metabolite profiling analyses.'
p1309
aS'2006'
p1310
aS'Proteomics'
p1311
asS'10076057'
p1312
(lp1313
I2
aS'Analysis of the Arabidopsis mitochondrial proteome.'
p1314
aS'2001'
p1315
aS'Plant physiology'
p1316
asS'10075714'
p1317
(lp1318
I2
aS'Central functions of the lumenal and peripheral thylakoid proteome of Arabidopsis determined by experimentation and genome-wide prediction.'
p1319
aS'2002'
p1320
aS'The Plant cell'
p1321
asS'10211837'
p1322
(lp1323
I1
aS'Mass spectrometric analysis of the human 40S ribosomal subunit: native and HCV IRES-bound complexes.'
p1324
aS'2005'
p1325
aS'Protein science : a publication of the Protein Society'
p1326
asS'10318820'
p1327
(lp1328
I1
aS'SMRT-mediated repression of an H3K27 demethylase in progression from neural stem cell to neuron.'
p1329
aS'2007'
p1330
aS'Nature'
p1331
asS'10073572'
p1332
(lp1333
I1
aS'Difference in expression of hepatic microRNAs miR-29c, miR-34a, miR-155, and miR-200b is associated with strain-specific susceptibility to dietary nonalcoholic steatohepatitis in mice.'
p1334
aS'2010'
p1335
aS'Laboratory investigation; a journal of technical methods and pathology'
p1336
asS'10070498'
p1337
(lp1338
I1
aS'A protein domain-based interactome network for C. elegans early embryogenesis.'
p1339
aS'2008'
p1340
aS'Cell'
p1341
asS'10191091'
p1342
(lp1343
I1
aS'The proteome of Saccharomyces cerevisiae mitochondria.'
p1344
aS'2003'
p1345
aS'Proceedings of the National Academy of Sciences of the United States of America'
p1346
asS'10234785'
p1347
(lp1348
I3
aS'Characterization of definitive lymphohematopoietic stem cells in the day 9 murine yolk sac.'
p1349
aS'1997'
p1350
aS'Immunity'
p1351
asS'10198057'
p1352
(lp1353
I1
aS'New genes tied to endocrine, metabolic, and dietary regulation of lifespan from a Caenorhabditis elegans genomic RNAi screen.'
p1354
aS'2005'
p1355
aS'PLoS genetics'
p1356
asS'10234787'
p1357
(lp1358
I3
aS'Cyclin D-cdk4 activity modulates the subnuclear localization and interaction of MEF2 with SRC-family coactivators during skeletal muscle differentiation.'
p1359
aS'2002'
p1360
aS'Genes & development'
p1361
asS'10234786'
p1362
(lp1363
I1
aS'A combined experimental and computational strategy to define protein interaction networks for peptide recognition modules.'
p1364
aS'2002'
p1365
aS'Science (New York, N.Y.)'
p1366
asS'10094305'
p1367
(lp1368
I5
aS'Novel asymmetrically localizing components of human centrosomes identified by complementary proteomics methods.'
p1369
aS'2011'
p1370
aS'The EMBO journal'
p1371
asS'10209124'
p1372
(lp1373
I1
aS'Combinatorial cis-acting elements control tissue-specific activation of the cardiac troponin I gene in vitro and in vivo.'
p1374
aS'1998'
p1375
aS'The Journal of biological chemistry'
p1376
asS'10066787'
p1377
(lp1378
I3
aS'Analysis of Dscam diversity in regulating axon guidance in Drosophila mushroom bodies.'
p1379
aS'2004'
p1380
aS'Neuron'
p1381
asS'10082128'
p1382
(lp1383
I1
aS'Identification of new intrinsic proteins in Arabidopsis plasma membrane proteome.'
p1384
aS'2004'
p1385
aS'Molecular & cellular proteomics : MCP'
p1386
asS'10049362'
p1387
(lp1388
I2
aS'Runx1 modulates adult hair follicle stem cell emergence and maintenance from distinct embryonic skin compartments.'
p1389
aS'2011'
p1390
aS'The Journal of cell biology'
p1391
asS'10049364'
p1392
(lp1393
I5
aS'Confirmational, provisional, and/or regional assignment of 15 enzyme loci onto Chinese hamster autosomes 1, 2, and 7.'
p1394
aS'1981'
p1395
aS'Somatic cell genetics'
p1396
asS'10048765'
p1397
(lp1398
I1
aS'Suppressors of the cdc-25.1(gf)-associated intestinal hyperplasia reveal important maternal roles for prp-8 and a subset of splicing factors in C. elegans.'
p1399
aS'2008'
p1400
aS'RNA (New York, N.Y.)'
p1401
asS'10330140'
p1402
(lp1403
I2
aS'PDGF signaling specificity is mediated through multiple immediate early genes.'
p1404
aS'2007'
p1405
aS'Nature genetics'
p1406
asS'10069826'
p1407
(lp1408
I1
aS'Drosophila dorsal paired medial neurons provide a general mechanism for memory consolidation.'
p1409
aS'2006'
p1410
aS'Current biology : CB'
p1411
asS'10026131'
p1412
(lp1413
I1
aS'Successful elimination of memory-type CD8+ T cell subsets by the administration of anti-Gr-1 monoclonal antibody in vivo.'
p1414
aS'2003'
p1415
aS'Cellular immunology'
p1416
asS'10072424'
p1417
(lp1418
I2
aS'Epidermal growth factor receptor and transforming growth factor-beta signaling contributes to variation for wing shape in Drosophila melanogaster.'
p1419
aS'2006'
p1420
aS'Genetics'
p1421
asS'10330408'
p1422
(lp1423
I2
aS'Neuronatin, a downstream target of BETA2/NeuroD1 in the pancreas, is involved in glucose-mediated insulin secretion.'
p1424
aS'2005'
p1425
aS'Diabetes'
p1426
asS'10087454'
p1427
(lp1428
I2
aS'Isolation of intact vacuoles and proteomic analysis of tonoplast from suspension-cultured cells of Arabidopsis thaliana.'
p1429
aS'2004'
p1430
aS'Plant & cell physiology'
p1431
asS'10224247'
p1432
(lp1433
I1
aS'Identification of potential nuclear reprogramming and differentiation factors by a novel selection method for cloning chromatin-binding proteins.'
p1434
aS'2004'
p1435
aS'Biochemical and biophysical research communications'
p1436
asS'10095118'
p1437
(lp1438
I2
aS'Uncovering early response of gene regulatory networks in ESCs by systematic induction of transcription factors.'
p1439
aS'2009'
p1440
aS'Cell stem cell'
p1441
asS'10052137'
p1442
(lp1443
I3
aS'In planta changes in protein phosphorylation induced by the plant hormone abscisic acid.'
p1444
aS'2010'
p1445
aS'Proceedings of the National Academy of Sciences of the United States of America'
p1446
asS'10215039'
p1447
(lp1448
I1
aS'Systematic genetic analysis of muscle morphogenesis and function in Drosophila.'
p1449
aS'2010'
p1450
aS'Nature'
p1451
asS'10048463'
p1452
(lp1453
I1
aS'Lifespan regulation by evolutionarily conserved genes essential for viability.'
p1454
aS'2007'
p1455
aS'PLoS genetics'
p1456
asS'10049395'
p1457
(lp1458
I1
aS'Absence of alpha-syntrophin leads to structurally aberrant neuromuscular synapses deficient in utrophin.'
p1459
aS'2000'
p1460
aS'The Journal of cell biology'
p1461
asS'10215623'
p1462
(lp1463
I2
aS'C. elegans bicd-1, homolog of the Drosophila dynein accessory factor Bicaudal D, regulates the branching of PVD sensory neuron dendrites.'
p1464
aS'2011'
p1465
aS'Development (Cambridge, England)'
p1466
asS'10215627'
p1467
(lp1468
I2
aS'CD1d1 mutant mice are deficient in natural T cells that promptly produce IL-4.'
p1469
aS'1997'
p1470
aS'Immunity'
p1471
asS'10026146'
p1472
(lp1473
I4
aS'Cytoskeletal disruption and small heat shock protein translocation immediately after lengthening contractions.'
p1474
aS'2004'
p1475
aS'American journal of physiology. Cell physiology'
p1476
asS'10215628'
p1477
(lp1478
I3
aS"Identification of genes encoding exported Mycobacterium tuberculosis proteins using a Tn552'phoA in vitro transposition system."
p1479
aS'2000'
p1480
aS'Journal of bacteriology'
p1481
asS'10218736'
p1482
(lp1483
I1
aS'Regulation of Caenorhabditis elegans lifespan by a proteasomal E3 ligase complex.'
p1484
aS'2007'
p1485
aS'Proceedings of the National Academy of Sciences of the United States of America'
p1486
asS'10023675'
p1487
(lp1488
I2
aS'Proteomics characterization of abundant Golgi membrane proteins.'
p1489
aS'2001'
p1490
aS'The Journal of biological chemistry'
p1491
asS'10023777'
p1492
(lp1493
I2
aS'Lamellipodium extension and cadherin adhesion: two cell responses to cadherin activation relying on distinct signalling pathways.'
p1494
aS'2004'
p1495
aS'Journal of cell science'
p1496
asS'10026226'
p1497
(lp1498
I6
aS'The transcriptional program of meiosis and sporulation in fission yeast.'
p1499
aS'2002'
p1500
aS'Nature genetics'
p1501
asS'10224141'
p1502
(lp1503
I1
aS'A corepressor/coactivator exchange complex required for transcriptional activation by nuclear receptors and other regulated transcription factors.'
p1504
aS'2004'
p1505
aS'Cell'
p1506
asS'10082533'
p1507
(lp1508
I1
aS'A sub-proteome of Arabidopsis thaliana mature stems trapped on Concanavalin A is enriched in cell wall glycoside hydrolases.'
p1509
aS'2007'
p1510
aS'Journal of experimental botany'
p1511
asS'10320805'
p1512
(lp1513
I1
aS'Mammalian stress granules represent sites of accumulation of stalled translation initiation complexes.'
p1514
aS'2003'
p1515
aS'American journal of physiology. Cell physiology'
p1516
asS'10200537'
p1517
(lp1518
I1
aS'Localization of basement membrane-associated protein isoforms during development of the ocular surface of mouse eye.'
p1519
aS'1997'
p1520
aS'Developmental dynamics : an official publication of the American Association of Anatomists'
p1521
asS'10096022'
p1522
(lp1523
I9
aS'Hydroponic isotope labelling of entire plants (HILEP) for quantitative plant proteomics; an oxidative stress case study.'
p1524
aS'2008'
p1525
aS'Phytochemistry'
p1526
asS'10102904'
p1527
(lp1528
I1
aS'The secreted proteome profile of developing Dictyostelium discoideum cells.'
p1529
aS'2010'
p1530
aS'Proteomics'
p1531
asS'10093894'
p1532
(lp1533
I2
aS'High heterogeneity within the ribosomal proteins of the Arabidopsis thaliana 80S ribosome.'
p1534
aS'2005'
p1535
aS'Plant molecular biology'
p1536
asS'10092627'
p1537
(lp1538
I3
aS'Comparative proteomic analysis of NaCl stress-responsive proteins in Arabidopsis roots.'
p1539
aS'2007'
p1540
aS'Journal of experimental botany'
p1541
asS'10220408'
p1542
(lp1543
I2
aS'Tsga10 encodes a 65-kilodalton protein that is processed to the 27-kilodalton fibrous sheath protein.'
p1544
aS'2004'
p1545
aS'Biology of reproduction'
p1546
asS'10037771'
p1547
(lp1548
I4
aS'Transcriptional regulation by CHIP/LDB complexes.'
p1549
aS'2010'
p1550
aS'PLoS genetics'
p1551
asS'10101125'
p1552
(lp1553
I2
aS'Genes required for mitotic spindle assembly in Drosophila S2 cells.'
p1554
aS'2007'
p1555
aS'Science (New York, N.Y.)'
p1556
asS'10228170'
p1557
(lp1558
I2
aS'Differences among mouse strains in the regulation by mu, delta 1 and delta 2 opioid receptors of striatal adenylyl cyclases activated by dopamine D1 or adenosine A2a receptors.'
p1559
aS'1996'
p1560
aS'Brain research'
p1561
asS'10080689'
p1562
(lp1563
I1
aS'Evidence for network evolution in an Arabidopsis interactome map.'
p1564
aS'2011'
p1565
aS'Science (New York, N.Y.)'
p1566
asS'10329667'
p1567
(lp1568
I3
aS'A new spontaneous mutation in the mouse protocadherin 15 gene.'
p1569
aS'2006'
p1570
aS'Hearing research'
p1571
asS'10329663'
p1572
(lp1573
I2
aS'Ames Waltzer deaf mice have reduced electroretinogram amplitudes and complex alternative splicing of Pcdh15 transcripts.'
p1574
aS'2006'
p1575
aS'Investigative ophthalmology & visual science'
p1576
asS'10092307'
p1577
(lp1578
I1
aS'Proteomics of the chloroplast envelope membranes from Arabidopsis thaliana.'
p1579
aS'2003'
p1580
aS'Molecular & cellular proteomics : MCP'
p1581
asS'10329544'
p1582
(lp1583
I2
aS'Serine protease inhibitors serpina1 and serpina3 are down-regulated in bone marrow during hematopoietic progenitor mobilization.'
p1584
aS'2005'
p1585
aS'The Journal of experimental medicine'
p1586
asS'10198430'
p1587
(lp1588
I1
aS'Ezh2 orchestrates gene expression for the stepwise differentiation of tissue-specific stem cells.'
p1589
aS'2009'
p1590
aS'Cell'
p1591
asS'10049576'
p1592
(lp1593
I1
aS'Increased Foxp3(+) CD4(+) regulatory T cells with intact suppressive activity but altered cellular localization in murine lupus.'
p1594
aS'2008'
p1595
aS'The American journal of pathology'
p1596
asS'10198096'
p1597
(lp1598
I5
aS'Adrenocorticotropic hormone-mediated signaling cascades coordinate a cyclic pattern of steroidogenic factor 1-dependent transcriptional activation.'
p1599
aS'2006'
p1600
aS'Molecular endocrinology (Baltimore, Md.)'
p1601
asS'10330192'
p1602
(lp1603
I2
aS'The PDZ protein tax-interacting protein-1 inhibits beta-catenin transcriptional activity and growth of colorectal cancer cells.'
p1604
aS'2003'
p1605
aS'The Journal of biological chemistry'
p1606
asS'10213692'
p1607
(lp1608
I3
aS'Genetic control of cellular quiescence in S. pombe.'
p1609
aS'2009'
p1610
aS'Journal of cell science'
p1611
asS'10194342'
p1612
(lp1613
I1
aS'Toward improving Caenorhabditis elegans phenome mapping with an ORFeome-based RNAi library.'
p1614
aS'2004'
p1615
aS'Genome research'
p1616
asS'10198642'
p1617
(lp1618
I2
aS'Ethylene and nitric oxide involvement in the up-regulation of key genes related to iron acquisition and homeostasis in Arabidopsis.'
p1619
aS'2010'
p1620
aS'Journal of experimental botany'
p1621
asS'10330022'
p1622
(lp1623
I6
aS'NF-Y is essential for the recruitment of RNA polymerase II and inducible transcription of several CCAAT box-containing genes.'
p1624
aS'2005'
p1625
aS'Molecular and cellular biology'
p1626
asS'10092534'
p1627
(lp1628
I1
aS'A network of conserved damage survival pathways revealed by a genomic RNAi screen.'
p1629
aS'2009'
p1630
aS'PLoS genetics'
p1631
asS'10098860'
p1632
(lp1633
I1
aS'The oligomeric stromal proteome of Arabidopsis thaliana chloroplasts.'
p1634
aS'2006'
p1635
aS'Molecular & cellular proteomics : MCP'
p1636
asS'10050887'
p1637
(lp1638
I1
aS'Development and application of a suite of polysaccharide-degrading enzymes for analyzing plant cell walls.'
p1639
aS'2006'
p1640
aS'Proceedings of the National Academy of Sciences of the United States of America'
p1641
asS'10226032'
p1642
(lp1643
I2
aS'A genetic screen for mutations affecting gonad formation in Drosophila reveals a role for the slit/robo pathway.'
p1644
aS'2011'
p1645
aS'Developmental biology'
p1646
asS'10223994'
p1647
(lp1648
I1
aS'Mouse mammary epithelial cells express the Na-K-Cl cotransporter, NKCC1: characterization, localization, and involvement in ductal development and morphogenesis.'
p1649
aS'2002'
p1650
aS'Molecular endocrinology (Baltimore, Md.)'
p1651
asS'10101332'
p1652
(lp1653
I1
aS'Functional genomic analysis of cell division in C. elegans using RNAi of genes on chromosome III.'
p1654
aS'2000'
p1655
aS'Nature'
p1656
asS'10323222'
p1657
(lp1658
I2
aS'A forward genetics screen in mice identifies recessive deafness traits and reveals that pejvakin is essential for outer hair cell function.'
p1659
aS'2007'
p1660
aS'The Journal of neuroscience : the official journal of the Society for Neuroscience'
p1661
asS'10198228'
p1662
(lp1663
I3
aS'The synovial sarcoma SYT-SSX2 oncogene remodels the cytoskeleton through activation of the ephrin pathway.'
p1664
aS'2007'
p1665
aS'Molecular biology of the cell'
p1666
asS'10026172'
p1667
(lp1668
I3
aS'The function and expansion of the Patched- and Hedgehog-related homologs in C. elegans.'
p1669
aS'2005'
p1670
aS'Genome research'
p1671
asS'10319818'
p1672
(lp1673
I2
aS'Increased ethanol resistance and consumption in Eps8 knockout mice correlates with altered actin dynamics.'
p1674
aS'2006'
p1675
aS'Cell'
p1676
asS'10206335'
p1677
(lp1678
I1
aS'P2X(7) receptor-mRNA and -protein in the mouse retina; changes during retinal degeneration in BALBCrds mice.'
p1679
aS'2005'
p1680
aS'Neurochemistry international'
p1681
asS'10319814'
p1682
(lp1683
I3
aS'The ciliary rootlet interacts with kinesin light chains and may provide a scaffold for kinesin-1 vesicular cargos.'
p1684
aS'2005'
p1685
aS'Experimental cell research'
p1686
asS'10196288'
p1687
(lp1688
I2
aS'A mitochondrial protein compendium elucidates complex I disease biology.'
p1689
aS'2008'
p1690
aS'Cell'
p1691
asS'10072399'
p1692
(lp1693
I1
aS'FKBP8 cell-autonomously controls neural tube patterning through a Gli2- and Kif3a-dependent mechanism.'
p1694
aS'2008'
p1695
aS'Developmental biology'
p1696
asS'10222154'
p1697
(lp1698
I1
aS'Characterization of the human small-ribosomal-subunit proteins by N-terminal and internal sequencing, and mass spectrometry.'
p1699
aS'1996'
p1700
aS'European journal of biochemistry / FEBS'
p1701
asS'10196465'
p1702
(lp1703
I1
aS'ORFeome cloning and global analysis of protein localization in the fission yeast Schizosaccharomyces pombe.'
p1704
aS'2006'
p1705
aS'Nature biotechnology'
p1706
asS'10198163'
p1707
(lp1708
I3
aS'Distinct roles of Polycomb group gene products in transcriptionally repressed and active domains of Hoxb8.'
p1709
aS'2006'
p1710
aS'Development (Cambridge, England)'
p1711
asS'10207060'
p1712
(lp1713
I2
aS'The Down syndrome critical region protein TTC3 inhibits neuronal differentiation via RhoA and Citron kinase.'
p1714
aS'2007'
p1715
aS'Journal of cell science'
p1716
asS'10224248'
p1717
(lp1718
I1
aS'Genome-wide requirements for Mycobacterium tuberculosis adaptation and survival in macrophages.'
p1719
aS'2005'
p1720
aS'Proceedings of the National Academy of Sciences of the United States of America'
p1721
asS'10051604'
p1722
(lp1723
I3
aS'90S pre-ribosomes include the 35S pre-rRNA, the U3 snoRNP, and 40S subunit processing factors but predominantly lack 60S synthesis factors.'
p1724
aS'2002'
p1725
aS'Molecular cell'
p1726
asS'10195693'
p1727
(lp1728
I4
aS'Integrated analysis of protein composition, tissue diversity, and gene regulation in mouse mitochondria.'
p1729
aS'2003'
p1730
aS'Cell'
p1731
asS'10195690'
p1732
(lp1733
I1
aS'Quantitative phosphoproteomics of early elicitor signaling in Arabidopsis.'
p1734
aS'2007'
p1735
aS'Molecular & cellular proteomics : MCP'
p1736
asS'10221759'
p1737
(lp1738
I1
aS'EPB41L5 functions to post-transcriptionally regulate cadherin and integrin during epithelial-mesenchymal transition.'
p1739
aS'2008'
p1740
aS'The Journal of cell biology'
p1741
asS'10064708'
p1742
(lp1743
I1
aS'Heterogeneity of the mitochondrial proteome for photosynthetic and non-photosynthetic Arabidopsis metabolism.'
p1744
aS'2008'
p1745
aS'Molecular & cellular proteomics : MCP'
p1746
asS'10085113'
p1747
(lp1748
I2
aS'A SAGE approach to discovery of genes involved in autophagic cell death.'
p1749
aS'2003'
p1750
aS'Current biology : CB'
p1751
asS'10188224'
p1752
(lp1753
I2
aS'A proteomics dissection of Arabidopsis thaliana vacuoles isolated from cell culture.'
p1754
aS'2007'
p1755
aS'Molecular & cellular proteomics : MCP'
p1756
asS'10070062'
p1757
(lp1758
I1
aS'The Rho-GTPase cdc42 regulates neural progenitor fate at the apical surface.'
p1759
aS'2006'
p1760
aS'Nature neuroscience'
p1761
asS'10230397'
p1762
(lp1763
I2
aS'Absence of functional peroxisomes does not lead to deficiency of enzymes involved in cholesterol biosynthesis.'
p1764
aS'2002'
p1765
aS'Journal of lipid research'
p1766
asS'10094480'
p1767
(lp1768
I5
aS'Genome-wide analyses identify transcription factors required for proper morphogenesis of Drosophila sensory neuron dendrites.'
p1769
aS'2006'
p1770
aS'Genes & development'
p1771
asS'10030667'
p1772
(lp1773
I1
aS'Cell array-based intracellular localization screening reveals novel functional features of human chromosome 21 proteins.'
p1774
aS'2006'
p1775
aS'BMC genomics'
p1776
asS'10210204'
p1777
(lp1778
I1
aS'Fibroblast growth factor receptor signaling promotes radial glial identity and interacts with Notch1 signaling in telencephalic progenitors.'
p1779
aS'2004'
p1780
aS'The Journal of neuroscience : the official journal of the Society for Neuroscience'
p1781
asS'10095082'
p1782
(lp1783
I1
aS'The lipid-droplet proteome reveals that droplets are a protein-storage depot.'
p1784
aS'2006'
p1785
aS'Current biology : CB'
p1786
asS'10209025'
p1787
(lp1788
I1
aS'A global census of fission yeast deubiquitinating enzyme localization and interaction networks reveals distinct compartmentalization profiles and overlapping functions in endocytosis and polarity.'
p1789
aS'2010'
p1790
aS'PLoS biology'
p1791
asS'10209754'
p1792
(lp1793
I2
aS'Global profiling of the cell surface proteome of cancer cells uncovers an abundance of proteins with chaperone function.'
p1794
aS'2003'
p1795
aS'The Journal of biological chemistry'
p1796
asS'10209755'
p1797
(lp1798
I1
aS'Distinct Rab binding specificity of Rim1, Rim2, rabphilin, and Noc2. Identification of a critical determinant of Rab3A/Rab27A recognition by Rim2.'
p1799
aS'2003'
p1800
aS'The Journal of biological chemistry'
p1801
asS'10209028'
p1802
(lp1803
I1
aS'Coordinated transcriptional regulation underlying the circadian clock in Arabidopsis.'
p1804
aS'2011'
p1805
aS'Nature cell biology'
p1806
asS'10036235'
p1807
(lp1808
I4
aS'Combinatorial RNA interference in Caenorhabditis elegans reveals that redundancy between gene duplicates can be maintained for more than 80 million years of evolution.'
p1809
aS'2006'
p1810
aS'Genome biology'
p1811
asS'10096060'
p1812
(lp1813
I7
aS'Transcriptome-based systematic identification of extracellular matrix proteins.'
p1814
aS'2008'
p1815
aS'Proceedings of the National Academy of Sciences of the United States of America'
p1816
asS'10202142'
p1817
(lp1818
I3
aS'Independent development of pancreatic alpha- and beta-cells from neurogenin3-expressing precursors: a role for the notch pathway in repression of premature differentiation.'
p1819
aS'2000'
p1820
aS'Diabetes'
p1821
asS'10051108'
p1822
(lp1823
I1
aS'Shifted Transversal Design smart-pooling for high coverage interactome mapping.'
p1824
aS'2009'
p1825
aS'Genome research'
p1826
asS'10049920'
p1827
(lp1828
I1
aS'Genes that act downstream of DAF-16 to influence the lifespan of Caenorhabditis elegans.'
p1829
aS'2003'
p1830
aS'Nature'
p1831
asS'10218646'
p1832
(lp1833
I1
aS'Multiple protein phosphatases are required for mitosis in Drosophila.'
p1834
aS'2007'
p1835
aS'Current biology : CB'
p1836
asS'10073938'
p1837
(lp1838
I3
aS'Cochlear developmental defect and background-dependent hearing thresholds in the Jackson circler (jc) mutant mouse.'
p1839
aS'2006'
p1840
aS'Hearing research'
p1841
asS'10037737'
p1842
(lp1843
I3
aS'Female sterile mutations on the second chromosome of Drosophila melanogaster. II. Mutations blocking oogenesis or altering egg morphology.'
p1844
aS'1991'
p1845
aS'Genetics'
p1846
asS'10079219'
p1847
(lp1848
I1
aS'Cdc42 controls progenitor cell differentiation and beta-catenin turnover in skin.'
p1849
aS'2006'
p1850
aS'Genes & development'
p1851
asS'10329507'
p1852
(lp1853
I1
aS'The mouse Ames waltzer hearing-loss mutant is caused by mutation of Pcdh15, a novel protocadherin gene.'
p1854
aS'2001'
p1855
aS'Nature genetics'
p1856
asS'10071239'
p1857
(lp1858
I1
aS'Cellular mechanisms of fatal early-onset autoimmunity in mice with the T cell-specific targeting of transforming growth factor-beta receptor.'
p1859
aS'2006'
p1860
aS'Immunity'
p1861
asS'10200269'
p1862
(lp1863
I1
aS'Characterization of zebrafish mutants with defects in embryonic hematopoiesis.'
p1864
aS'1996'
p1865
aS'Development (Cambridge, England)'
p1866
asS'10085132'
p1867
(lp1868
I1
aS'The hydrophobic proteome of mitochondrial membranes from Arabidopsis cell suspensions.'
p1869
aS'2004'
p1870
aS'Phytochemistry'
p1871
asS'10090752'
p1872
(lp1873
I3
aS'Systematic identification of SH3 domain-mediated human protein-protein interactions by peptide array target screening.'
p1874
aS'2007'
p1875
aS'Proteomics'
p1876
asS'10092594'
p1877
(lp1878
I3
aS'Rifins: a second family of clonally variant proteins expressed on the surface of red cells infected with Plasmodium falciparum.'
p1879
aS'1999'
p1880
aS'Proceedings of the National Academy of Sciences of the United States of America'
p1881
asS'10090909'
p1882
(lp1883
I3
aS'Large-scale identification of mammalian proteins localized to nuclear sub-compartments.'
p1884
aS'2001'
p1885
aS'Human molecular genetics'
p1886
asS'10195899'
p1887
(lp1888
I1
aS'Full-genome RNAi profiling of early embryogenesis in Caenorhabditis elegans.'
p1889
aS'2005'
p1890
aS'Nature'
p1891
asS'10319861'
p1892
(lp1893
I2
aS'Cep120 and TACCs control interkinetic nuclear migration and the neural progenitor pool.'
p1894
aS'2007'
p1895
aS'Neuron'
p1896
asS'10064801'
p1897
(lp1898
I1
aS'Analysis of mouse embryonic patterning and morphogenesis by forward genetics.'
p1899
aS'2005'
p1900
aS'Proceedings of the National Academy of Sciences of the United States of America'
p1901
asS'10077605'
p1902
(lp1903
I2
aS'Systematic identification of genes that regulate neuronal wiring in the Drosophila visual system.'
p1904
aS'2008'
p1905
aS'PLoS genetics'
p1906
asS'10220570'
p1907
(lp1908
I2
aS'A large-scale screen in S. pombe identifies seven novel genes required for critical meiotic events.'
p1909
aS'2005'
p1910
aS'Current biology : CB'
p1911
asS'10225946'
p1912
(lp1913
I1
aS'Levels of mesenchymal FGFR2 signaling modulate smooth muscle progenitor cell commitment in the lung.'
p1914
aS'2006'
p1915
aS'Developmental biology'
p1916
asS'10052452'
p1917
(lp1918
I1
aS'Two-dimensional reference map of Candida albicans hyphal forms.'
p1919
aS'2004'
p1920
aS'Proteomics'
p1921
asS'10102577'
p1922
(lp1923
I1
aS'Identification of Drosophila gene products required for phagocytosis of Candida albicans.'
p1924
aS'2006'
p1925
aS'PLoS biology'
p1926
asS'10047492'
p1927
(lp1928
I1
aS'Mammalian late vacuole protein sorting orthologues participate in early endosomal fusion and interact with the cytoskeleton.'
p1929
aS'2004'
p1930
aS'Molecular biology of the cell'
p1931
asS'10102273'
p1932
(lp1933
I6
aS'Functional genomic analysis of C. elegans chromosome I by systematic RNA interference.'
p1934
aS'2000'
p1935
aS'Nature'
p1936
asS'10075727'
p1937
(lp1938
I2
aS'Proteome analysis of Arabidopsis leaf peroxisomes reveals novel targeting peptides, metabolic pathways, and defense mechanisms.'
p1939
aS'2007'
p1940
aS'The Plant cell'
p1941
asS'10079952'
p1942
(lp1943
I5
aS'Cell wall proteins in apoplastic fluids of Arabidopsis thaliana rosettes: identification by mass spectrometry and bioinformatics.'
p1944
aS'2005'
p1945
aS'Proteomics'
p1946
asS'10102375'
p1947
(lp1948
I2
aS'Quantitative proteomics of a chloroplast SRP54 sorting mutant and its genetic interactions with CLPC1 in Arabidopsis.'
p1949
aS'2008'
p1950
aS'Plant physiology'
p1951
asS'10219997'
p1952
(lp1953
I2
aS'The monoclonal antibody TER-119 recognizes a molecule associated with glycophorin A and specifically marks the late stages of murine erythroid lineage.'
p1954
aS'2000'
p1955
aS'British journal of haematology'
p1956
asS'10074450'
p1957
(lp1958
I1
aS'A protein-protein interaction network for human inherited ataxias and disorders of Purkinje cell degeneration.'
p1959
aS'2006'
p1960
aS'Cell'
p1961
asS'10095056'
p1962
(lp1963
I4
aS'Proteomics fingerprinting of phagosome maturation and evidence for the role of a Galpha during uptake.'
p1964
aS'2006'
p1965
aS'Molecular & cellular proteomics : MCP'
p1966
asS'10207147'
p1967
(lp1968
I6
aS'Enantioselective induction of estrogen-responsive gene expression by permethrin enantiomers in embryo-larval zebrafish.'
p1969
aS'2009'
p1970
aS'Chemosphere'
p1971
asS'10216230'
p1972
(lp1973
I3
aS'Bone marrow allograft rejection mediated by a novel murine NK receptor, NKG2I.'
p1974
aS'2004'
p1975
aS'The Journal of experimental medicine'
p1976
asS'10086341'
p1977
(lp1978
I1
aS'Defining the budding yeast chromatin-associated interactome.'
p1979
aS'2010'
p1980
aS'Molecular systems biology'
p1981
asS'10194318'
p1982
(lp1983
I1
aS'Toward the complete yeast mitochondrial proteome: multidimensional separation techniques for mitochondrial proteomics.'
p1984
aS'2006'
p1985
aS'Journal of proteome research'
p1986
asS'10196182'
p1987
(lp1988
I2
aS'Global analysis of protein localization in budding yeast.'
p1989
aS'2003'
p1990
aS'Nature'
p1991
asS'10218791'
p1992
(lp1993
I5
aS'A sensitized PiggyBac-based screen for regulators of border cell migration in Drosophila.'
p1994
aS'2007'
p1995
aS'Genetics'
p1996
asS'10207099'
p1997
(lp1998
I4
aS'Extensive characterization of IFN-induced GTPases mGBP1 to mGBP10 involved in host defense.'
p1999
aS'2007'
p2000
aS'Journal of immunology (Baltimore, Md. : 1950)'
p2001
asS'10207098'
p2002
(lp2003
I2
aS'STATc is a key regulator of the transcriptional response to hyperosmotic shock.'
p2004
aS'2007'
p2005
aS'BMC genomics'
p2006
asS'10097388'
p2007
(lp2008
I3
aS'A functional genomic analysis of cell morphology using RNA interference.'
p2009
aS'2003'
p2010
aS'Journal of biology'
p2011
asS'10050855'
p2012
(lp2013
I7
aS'Large-scale characterization of integral proteins from Arabidopsis vacuolar membrane by two-dimensional liquid chromatography.'
p2014
aS'2004'
p2015
aS'Proteomics'
p2016
asS'10232613'
p2017
(lp2018
I1
aS'Modulation of morphogenesis by noncanonical Wnt signaling requires ATF/CREB family-mediated transcriptional activation of TGFbeta2.'
p2019
aS'2007'
p2020
aS'Nature genetics'
p2021
asS'10330154'
p2022
(lp2023
I1
aS'Zebrafish mutations affecting retinotectal axon pathfinding.'
p2024
aS'1996'
p2025
aS'Development (Cambridge, England)'
p2026
asS'10072431'
p2027
(lp2028
I2
aS'A global protein kinase and phosphatase interaction network in yeast.'
p2029
aS'2010'
p2030
aS'Science (New York, N.Y.)'
p2031
asS'10103055'
p2032
(lp2033
I1
aS'Proteomic analysis of the mouse liver mitochondrial inner membrane.'
p2034
aS'2003'
p2035
aS'The Journal of biological chemistry'
p2036
asS'10066248'
p2037
(lp2038
I6
aS'Axonal targeting of olfactory receptor neurons in Drosophila is controlled by Dscam.'
p2039
aS'2003'
p2040
aS'Neuron'
p2041
asS'10218947'
p2042
(lp2043
I2
aS'LMO4 controls the balance between excitatory and inhibitory spinal V2 interneurons.'
p2044
aS'2009'
p2045
aS'Neuron'
p2046
asS'10222120'
p2047
(lp2048
I3
aS'A secreted protein microarray platform for extracellular protein interaction discovery.'
p2049
aS'2012'
p2050
aS'Analytical biochemistry'
p2051
asS'10064594'
p2052
(lp2053
I2
aS'Interactions in the network of Usher syndrome type 1 proteins.'
p2054
aS'2005'
p2055
aS'Human molecular genetics'
p2056
asS'10064592'
p2057
(lp2058
I1
aS'The staufen/pumilio pathway is involved in Drosophila long-term memory.'
p2059
aS'2003'
p2060
aS'Current biology : CB'
p2061
asS'10064590'
p2062
(lp2063
I1
aS'Interaction of the murine dilute suppressor gene (dsu) with fourteen coat color mutations.'
p2064
aS'1990'
p2065
aS'Genetics'
p2066
asS'10070140'
p2067
(lp2068
I3
aS'Inhibitor of apoptosis 2 and TAK1-binding protein are components of the Drosophila Imd pathway.'
p2069
aS'2005'
p2070
aS'The EMBO journal'
p2071
asS'10194414'
p2072
(lp2073
I1
aS'Analysis of the Arabidopsis cytosolic proteome highlights subcellular partitioning of central plant metabolism.'
p2074
aS'2011'
p2075
aS'Journal of proteome research'
p2076
asS'10051670'
p2077
(lp2078
I5
aS'Physical and functional interaction between protocadherin 15 and myosin VIIa in mechanosensory hair cells.'
p2079
aS'2006'
p2080
aS'The Journal of neuroscience : the official journal of the Society for Neuroscience'
p2081
asS'10051671'
p2082
(lp2083
I7
aS'Characterization of the Drosophila melanogaster ribosomal proteome.'
p2084
aS'2006'
p2085
aS'Journal of proteome research'
p2086
asS'10049386'
p2087
(lp2088
I3
aS'A method to identify cDNAs based on localization of green fluorescent protein fusion products.'
p2089
aS'2000'
p2090
aS'Proceedings of the National Academy of Sciences of the United States of America'
p2091
asS'10320381'
p2092
(lp2093
I3
aS'IL-1 family members and STAT activators induce cytokine production by Th2, Th17, and Th1 cells.'
p2094
aS'2009'
p2095
aS'Proceedings of the National Academy of Sciences of the United States of America'
p2096
asS'10074354'
p2097
(lp2098
I3
aS'Analysis of mammalian proteins involved in chromatin modification reveals new metaphase centromeric proteins and distinct chromosomal distribution patterns.'
p2099
aS'2003'
p2100
aS'Human molecular genetics'
p2101
asS'10189070'
p2102
(lp2103
I1
aS'A microtubule interactome: complexes with roles in cell cycle and mitosis.'
p2104
aS'2008'
p2105
aS'PLoS biology'
p2106
asS'10207026'
p2107
(lp2108
I1
aS'Amyotrophic lateral sclerosis 2-deficiency leads to neuronal degeneration in amyotrophic lateral sclerosis through altered AMPA receptor trafficking.'
p2109
aS'2006'
p2110
aS'The Journal of neuroscience : the official journal of the Society for Neuroscience'
p2111
asS'10323327'
p2112
(lp2113
I1
aS'Mouse pachytene checkpoint 2 (trip13) is required for completing meiotic recombination but not synapsis.'
p2114
aS'2007'
p2115
aS'PLoS genetics'
p2116
asS'10026205'
p2117
(lp2118
I1
aS'Nematode-induced changes of transporter gene expression in Arabidopsis roots.'
p2119
aS'2005'
p2120
aS'Molecular plant-microbe interactions : MPMI'
p2121
asS'10082554'
p2122
(lp2123
I2
aS'Targeted deletion of alpha-adducin results in absent beta- and gamma-adducin, compensated hemolytic anemia, and lethal hydrocephalus in mice.'
p2124
aS'2008'
p2125
aS'Blood'
p2126
asS'10025686'
p2127
(lp2128
I1
aS'Calcineurin-independent regulation of plasma membrane Ca2+ ATPase-4 in the vascular smooth muscle cell cycle.'
p2129
aS'2003'
p2130
aS'American journal of physiology. Cell physiology'
p2131
asS'10200258'
p2132
(lp2133
I4
aS'Isolation of proteins that interact specifically with the retinoid X receptor: two novel orphan receptors.'
p2134
aS'1995'
p2135
aS'Molecular endocrinology (Baltimore, Md.)'
p2136
asS'10026212'
p2137
(lp2138
I2
aS'GATA-3 regulates the development and function of invariant NKT cells.'
p2139
aS'2006'
p2140
aS'Journal of immunology (Baltimore, Md. : 1950)'
p2141
asS'10221900'
p2142
(lp2143
I1
aS'HDAC1 and HDAC2 regulate oligodendrocyte differentiation by disrupting the beta-catenin-TCF interaction.'
p2144
aS'2009'
p2145
aS'Nature neuroscience'
p2146
asS'10201810'
p2147
(lp2148
I1
aS'Reversible defects in natural killer and memory CD8 T cell lineages in interleukin 15-deficient mice.'
p2149
aS'2000'
p2150
aS'The Journal of experimental medicine'
p2151
asS'10329386'
p2152
(lp2153
I1
aS'CDK6 kinase activity is required for thymocyte development.'
p2154
aS'2011'
p2155
aS'Blood'
p2156
asS'10089161'
p2157
(lp2158
I2
aS'Systematic mapping of genetic interactions in Caenorhabditis elegans identifies common modifiers of diverse signaling pathways.'
p2159
aS'2006'
p2160
aS'Nature genetics'
p2161
asS'10089160'
p2162
(lp2163
I4
aS'Haploinsufficiency-based large-scale forward genetic analysis of filamentous growth in the diploid human fungal pathogen C.albicans.'
p2164
aS'2003'
p2165
aS'The EMBO journal'
p2166
asS'10320815'
p2167
(lp2168
I1
aS'Functional interaction between BLM helicase and 53BP1 in a Chk1-mediated pathway during S-phase arrest.'
p2169
aS'2004'
p2170
aS'The Journal of cell biology'
p2171
asS'10327204'
p2172
(lp2173
I1
aS'An in vitro microfluidic approach to generating protein-interaction networks.'
p2174
aS'2009'
p2175
aS'Nature methods'
p2176
asS'10075670'
p2177
(lp2178
I1
aS'Assigning function to yeast proteins by integration of technologies.'
p2179
aS'2003'
p2180
aS'Molecular cell'
p2181
asS'10000000'
p2182
(lp2183
I1
aS'A subcellular localization compendium of hydrogen peroxide-induced proteins.'
p2184
aS'2012'
p2185
aS'Plant, cell & environment'
p2186
asS'10318803'
p2187
(lp2188
I4
aS'Probing the membrane environment of the TOR kinases reveals functional interactions between TORC1, actin, and membrane trafficking in Saccharomyces cerevisiae.'
p2189
aS'2007'
p2190
aS'Molecular biology of the cell'
p2191
asS'10076178'
p2192
(lp2193
I2
aS'Patterns of gene expression during Drosophila mesoderm development.'
p2194
aS'2001'
p2195
aS'Science (New York, N.Y.)'
p2196
asS'10082676'
p2197
(lp2198
I2
aS'Proteomics characterization of extracellular space components in the human aorta.'
p2199
aS'2010'
p2200
aS'Molecular & cellular proteomics : MCP'
p2201
asS'10090127'
p2202
(lp2203
I1
aS'PRP-17 and the pre-mRNA splicing pathway are preferentially required for the proliferation versus meiotic development decision and germline sex determination in Caenorhabditis elegans.'
p2204
aS'2010'
p2205
aS'Developmental dynamics : an official publication of the American Association of Anatomists'
p2206
asS'10048032'
p2207
(lp2208
I2
aS'G-protein-coupled receptor-mediated activation of rap GTPases: characterization of a novel Galphai regulated pathway.'
p2209
aS'2004'
p2210
aS'Oncogene'
p2211
asS'10217500'
p2212
(lp2213
I2
aS'Ikaros SUMOylation: switching out of repression.'
p2214
aS'2005'
p2215
aS'Molecular and cellular biology'
p2216
asS'10218485'
p2217
(lp2218
I3
aS'Repression of Runx2 function by TGF-beta through recruitment of class II histone deacetylases by Smad3.'
p2219
aS'2005'
p2220
aS'The EMBO journal'
p2221
asS'10212300'
p2222
(lp2223
I1
aS'The layered structure of human mitochondrial DNA nucleoids.'
p2224
aS'2008'
p2225
aS'The Journal of biological chemistry'
p2226
asS'10191260'
p2227
(lp2228
I1
aS'Genes required for mycobacterial growth defined by high density mutagenesis.'
p2229
aS'2003'
p2230
aS'Molecular microbiology'
p2231
asS'10072397'
p2232
(lp2233
I1
aS'Regulation of microtubule assembly and organization in mitosis by the AAA+ ATPase Pontin.'
p2234
aS'2008'
p2235
aS'Molecular biology of the cell'
p2236
asS'10199399'
p2237
(lp2238
I1
aS'ECM1 controls T(H)2 cell egress from lymph nodes through re-expression of S1P(1).'
p2239
aS'2011'
p2240
aS'Nature immunology'
p2241
asS'10329655'
p2242
(lp2243
I2
aS'Systematic analysis of genes required for synapse structure and function.'
p2244
aS'2005'
p2245
aS'Nature'
p2246
asS'10049721'
p2247
(lp2248
I1
aS'Docking motif-guided mapping of the interactome of protein phosphatase-1.'
p2249
aS'2009'
p2250
aS'Chemistry & biology'
p2251
asS'10318780'
p2252
(lp2253
I1
aS'Cell fate determination factor DACH1 inhibits c-Jun-induced contact-independent growth.'
p2254
aS'2007'
p2255
aS'Molecular biology of the cell'
p2256
asS'10219625'
p2257
(lp2258
I1
aS'Requirement for the homeobox gene Hb9 in the consolidation of motor neuron identity.'
p2259
aS'1999'
p2260
aS'Neuron'
p2261
asS'10071224'
p2262
(lp2263
I2
aS'Autophosphorylation profiling of Arabidopsis protein kinases using the cell-free system.'
p2264
aS'2011'
p2265
aS'Phytochemistry'
p2266
asS'10022848'
p2267
(lp2268
I1
aS'Proteomics analysis reveals stable multiprotein complexes in both fission and budding yeasts containing Myb-related Cdc5p/Cef1p, novel pre-mRNA splicing factors, and snRNAs.'
p2269
aS'2002'
p2270
aS'Molecular and cellular biology'
p2271
asS'10219239'
p2272
(lp2273
I1
aS'Distinct patterns of Fas cell surface expression during development of T- or B-lymphocyte lineages in normal, scid, and mutant mice lacking or overexpressing p53, bcl-2, or rag-2 genes.'
p2274
aS'1996'
p2275
aS'Cell growth & differentiation : the molecular biology journal of the American Association for Cancer Research'
p2276
asS'10229796'
p2277
(lp2278
I2
aS'Ultrastructural and biochemical localization of N-RAP at the interface between myofibrils and intercalated disks in the mouse heart.'
p2279
aS'2001'
p2280
aS'Biochemistry'
p2281
asS'10065150'
p2282
(lp2283
I1
aS'A cell surface interaction network of neural leucine-rich repeat receptors.'
p2284
aS'2009'
p2285
aS'Genome biology'
p2286
asS'10092522'
p2287
(lp2288
I5
aS'In-depth analysis of the thylakoid membrane proteome of Arabidopsis thaliana chloroplasts: new proteins, new functions, and a plastid proteome database.'
p2289
aS'2004'
p2290
aS'The Plant cell'
p2291
asS'10024560'
p2292
(lp2293
I1
aS'Sisyphus, the Drosophila myosin XV homolog, traffics within filopodia transporting key sensory and adhesion cargos.'
p2294
aS'2008'
p2295
aS'Development (Cambridge, England)'
p2296
asS'10092680'
p2297
(lp2298
I1
aS'Dissection of the mammalian midbody proteome reveals conserved cytokinesis mechanisms.'
p2299
aS'2004'
p2300
aS'Science (New York, N.Y.)'
p2301
asS'10050892'
p2302
(lp2303
I2
aS'A genome-wide survey and systematic RNAi-based characterization of helicase-like genes in Caenorhabditis elegans.'
p2304
aS'2007'
p2305
aS'DNA research : an international journal for rapid publication of reports on genes and genomes'
p2306
asS'10022942'
p2307
(lp2308
I1
aS'Fibroblast growth factor signals regulate a wave of Hedgehog activation that is essential for coronary vascular development.'
p2309
aS'2006'
p2310
aS'Genes & development'
p2311
asS'10096298'
p2312
(lp2313
I1
aS'A comprehensive two-hybrid analysis to explore the yeast protein interactome.'
p2314
aS'2001'
p2315
aS'Proceedings of the National Academy of Sciences of the United States of America'
p2316
asS'10077677'
p2317
(lp2318
I1
aS'Zebrafish whole-adult-organism chemogenomics for large-scale predictive and discovery chemical biology.'
p2319
aS'2008'
p2320
aS'PLoS genetics'
p2321
asS'10072383'
p2322
(lp2323
I1
aS'Molecular pathways that influence human tau-induced pathology in Caenorhabditis elegans.'
p2324
aS'2006'
p2325
aS'Human molecular genetics'
p2326
asS'10072382'
p2327
(lp2328
I2
aS'Specific nucleoporin requirement for Smad nuclear translocation.'
p2329
aS'2010'
p2330
aS'Molecular and cellular biology'
p2331
asS'10072385'
p2332
(lp2333
I2
aS'Resolving and identifying protein components of plant mitochondrial respiratory complexes using three dimensions of gel electrophoresis.'
p2334
aS'2008'
p2335
aS'Journal of proteome research'
p2336
asS'10094636'
p2337
(lp2338
I4
aS'Genome-wide fitness test and mechanism-of-action studies of inhibitory compounds in Candida albicans.'
p2339
aS'2007'
p2340
aS'PLoS pathogens'
p2341
asS'10101186'
p2342
(lp2343
I2
aS'Protein-protein interaction panel using mouse full-length cDNAs.'
p2344
aS'2001'
p2345
aS'Genome research'
p2346
asS'10206191'
p2347
(lp2348
I3
aS'Emx2 and Pax6 function in cooperation with Otx2 and Otx1 to develop caudal forebrain primordium that includes future archipallium.'
p2349
aS'2005'
p2350
aS'The Journal of neuroscience : the official journal of the Society for Neuroscience'
p2351
asS'10080181'
p2352
(lp2353
I1
aS'Interaction network containing conserved and essential protein complexes in Escherichia coli.'
p2354
aS'2005'
p2355
aS'Nature'
p2356
asS'10098510'
p2357
(lp2358
I1
aS'Toward an understanding of the protein interaction network of the human liver.'
p2359
aS'2011'
p2360
aS'Molecular systems biology'
p2361
asS'10067875'
p2362
(lp2363
I1
aS'Extensive diversity of Ig-superfamily proteins in the immune system of insects.'
p2364
aS'2005'
p2365
aS'Science (New York, N.Y.)'
p2366
asS'10049913'
p2367
(lp2368
I1
aS'Developmental profiling of spiral ganglion neurons reveals insights into auditory circuit assembly.'
p2369
aS'2011'
p2370
aS'The Journal of neuroscience : the official journal of the Society for Neuroscience'
p2371
asS'102414'
p2372
(lp2373
I1
aS'Serine-threonine kinases and transcription factors active in signal transduction are detected at high levels of phosphorylation during mitosis in preimplantation embryos and trophoblast stem cells.'
p2374
aS'2004'
p2375
aS'Reproduction (Cambridge, England)'
p2376
asS'10197984'
p2377
(lp2378
I3
aS'Pea3 transcription factor cooperates with USF-1 in regulation of the murine bax transcription without binding to an Ets-binding site.'
p2379
aS'2005'
p2380
aS'The Journal of biological chemistry'
p2381
asS'10197987'
p2382
(lp2383
I5
aS'Wnt signalling induces maturation of Paneth cells in intestinal crypts.'
p2384
aS'2005'
p2385
aS'Nature cell biology'
p2386
asS'10220347'
p2387
(lp2388
I1
aS'Lymphoid enhancer factor-1 and beta-catenin inhibit Runx2-dependent transcriptional activation of the osteocalcin promoter.'
p2389
aS'2003'
p2390
aS'The Journal of biological chemistry'
p2391
asS'10197980'
p2392
(lp2393
I2
aS'MAP kinase phosphatase 3 (MKP3) interacts with and is phosphorylated by protein kinase CK2alpha.'
p2394
aS'2004'
p2395
aS'The Journal of biological chemistry'
p2396
asS'10218578'
p2397
(lp2398
I1
aS'Gli3-mediated somitic Fgf10 expression gradients are required for the induction and patterning of mammary epithelium along the embryonic axes.'
p2399
aS'2006'
p2400
aS'Development (Cambridge, England)'
p2401
asS'10075855'
p2402
(lp2403
I2
aS'Large-scale identification and characterization of human genes that activate NF-kappaB and MAPK signaling pathways.'
p2404
aS'2003'
p2405
aS'Oncogene'
p2406
asS'10207106'
p2407
(lp2408
I1
aS'Piecemeal microautophagy of the nucleus requires the core macroautophagy genes.'
p2409
aS'2008'
p2410
aS'Molecular biology of the cell'
p2411
asS'10207101'
p2412
(lp2413
I2
aS'Fibroblast growth factor receptor signaling is essential for lens fiber cell differentiation.'
p2414
aS'2008'
p2415
aS'Developmental biology'
p2416
asS'10319817'
p2417
(lp2418
I4
aS'Coordinated transport of phosphorylated amyloid-beta precursor protein and c-Jun NH2-terminal kinase-interacting protein-1.'
p2419
aS'2005'
p2420
aS'The Journal of cell biology'
p2421
asS'10326683'
p2422
(lp2423
I1
aS'Dominant and redundant functions of TFIID involved in the regulation of hepatic genes.'
p2424
aS'2008'
p2425
aS'Molecular cell'
p2426
asS'10066377'
p2427
(lp2428
I1
aS'Transmembrane/juxtamembrane domain-dependent Dscam distribution and function during mushroom body neuronal morphogenesis.'
p2429
aS'2004'
p2430
aS'Neuron'
p2431
asS'10212238'
p2432
(lp2433
I2
aS'Wnt signaling inhibitors regulate the transcriptional response to morphogenetic Shh-Gli signaling in the neural tube.'
p2434
aS'2006'
p2435
aS'Developmental cell'
p2436
asS'10329428'
p2437
(lp2438
I5
aS'Heat stable antigen (mouse CD24) supports myeloid cell binding to endothelial and platelet P-selectin.'
p2439
aS'1995'
p2440
aS'International immunology'
p2441
asS'10210195'
p2442
(lp2443
I1
aS'STAT5 is required for thymopoiesis in a development stage-specific manner.'
p2444
aS'2004'
p2445
aS'Journal of immunology (Baltimore, Md. : 1950)'
p2446
asS'10025402'
p2447
(lp2448
I3
aS'Killing activity and rescue function of genome-wide toxin-antitoxin loci of Mycobacterium tuberculosis.'
p2449
aS'2009'
p2450
aS'FEMS microbiology letters'
p2451
asS'10037816'
p2452
(lp2453
I2
aS'Zygotic lethal mutations with maternal effect phenotypes in Drosophila melanogaster. II. Loci on the second and third chromosomes identified by P-element-induced mutations.'
p2454
aS'1996'
p2455
aS'Genetics'
p2456
asS'10066176'
p2457
(lp2458
I2
aS'Drosophila Dscam is required for divergent segregation of sister branches and suppresses ectopic bifurcation of axons.'
p2459
aS'2002'
p2460
aS'Neuron'
p2461
asS'10329620'
p2462
(lp2463
I4
aS'Characterization of a new allele of Ames waltzer generated by ENU mutagenesis.'
p2464
aS'2005'
p2465
aS'Hearing research'
p2466
asS'10021340'
p2467
(lp2468
I2
aS'Embryonic submandibular gland morphogenesis: stage-specific protein localization of FGFs, BMPs, Pax6 and Pax9 in normal mice and abnormal SMG phenotypes in FgfR2-IIIc(+/Delta), BMP7(-/-) and Pax6(-/-) mice.'
p2469
aS'2002'
p2470
aS'Cells, tissues, organs'
p2471
asS'10049917'
p2472
(lp2473
I1
aS'Identification of genes that protect the C. elegans genome against mutations by genome-wide RNAi.'
p2474
aS'2003'
p2475
aS'Genes & development'
p2476
asS'10021346'
p2477
(lp2478
I1
aS'Deciphering apicoplast targeting signals--feature extraction from nuclear-encoded precursors of Plasmodium falciparum apicoplast proteins.'
p2479
aS'2001'
p2480
aS'Gene'
p2481
asS'10094961'
p2482
(lp2483
I5
aS'An in vivo map of the yeast protein interactome.'
p2484
aS'2008'
p2485
aS'Science (New York, N.Y.)'
p2486
asS'10085073'
p2487
(lp2488
I1
aS'A targeted RNAi screen for genes involved in chromosome morphogenesis and nuclear organization in the Caenorhabditis elegans germline.'
p2489
aS'2002'
p2490
aS'Genetics'
p2491
asS'10048020'
p2492
(lp2493
I1
aS'T lymphocytes amplify the anabolic activity of parathyroid hormone through Wnt10b signaling.'
p2494
aS'2009'
p2495
aS'Cell metabolism'
p2496
as.